
obj/app_print_backtrace：     文件格式 elf64-littleriscv
体系结构：riscv:rv64， 标志 0x00000112：
EXEC_P, HAS_SYMS, D_PAGED
起始地址 0x00000000810000a2

Contents of section .text:
 81000000 411106e4 22e00008 1d45ef00 0016a260  A..."....E.....`
 81000010 02644101 82804111 06e422e0 0008eff0  .dA...A...".....
 81000020 3ffea260 02644101 82804111 06e422e0  ?..`.dA...A...".
 81000030 0008eff0 5ffea260 02644101 82804111  ...._..`.dA...A.
 81000040 06e422e0 0008eff0 5ffea260 02644101  .."....._..`.dA.
 81000050 82804111 06e422e0 0008eff0 5ffea260  ..A..."....._..`
 81000060 02644101 82804111 06e422e0 0008eff0  .dA...A...".....
 81000070 5ffea260 02644101 82804111 06e422e0  _..`.dA...A...".
 81000080 0008eff0 5ffea260 02644101 82804111  ...._..`.dA...A.
 81000090 06e422e0 0008eff0 5ffea260 02644101  .."....._..`.dA.
 810000a0 82804111 06e422e0 00081705 00001305  ..A...".........
 810000b0 e52eef00 0003eff0 9ffd0145 ef008008  ...........E....
 810000c0 0145a260 02644101 82800111 22ec0010  .E.`.dA....."...
 810000d0 73000000 2326a4fe 0325c4fe 62640561  s...#&...%..bd.a
 810000e0 82800d71 06ee22ea 00120ce4 10e814ec  ...q..".........
 810000f0 18f01cf4 23380403 233c1403 93068400  ....#8..#<......
 81000100 2334d4fe 2a869305 00101305 84eeef00  #4..*...........
 81000110 20081b07 05009307 f00f63e2 e7022a86   .........c...*.
 81000120 81480148 81470147 81469305 84ee1305  .H.H.G.G.F......
 81000130 0004eff0 9ff9f260 52643561 82801306  .......`Rd5a....
 81000140 0010f9bf 411106e4 22e00008 aa858148  ....A..."......H
 81000150 01488147 01478146 01461305 1004eff0  .H.G.G.F.F......
 81000160 dff6a260 02644101 82804111 06e422e0  ...`.dA...A...".
 81000170 0008aa85 81480148 81470147 81460146  .....H.H.G.G.F.F
 81000180 13052004 eff07ff4 a2600264 41018280  .. ......`.dA...
 81000190 011122ec 00102334 d4fe8147 01438146  .."...#4...G.C.F
 810001a0 55a21387 17006378 b7003308 f5009308  U.....cx..3.....
 810001b0 00032300 18018907 63f7b700 2a971308  ..#.....c...*...
 810001c0 80072300 07010337 84fe1308 87002334  ..#....7......#4
 810001d0 04ff8338 0700a9ea 9d4635a0 63040300  ...8.....F5.c...
 810001e0 9a86d5b7 033784fe 93068700 2334d4fe  .....7......#4..
 810001f0 83280700 9a86c5b7 13077705 aa972380  .(........w...#.
 81000200 e700fd36 c28763c3 06021b97 260033d7  ...6..c.....&.3.
 81000210 e8403d8b 13881700 e375b8fe 2543e34d  .@=......u..%C.M
 81000220 e3fc1307 0703d9bf bd46f1bf 01438146  .........F...C.F
 81000230 09aa630f 03000337 84fe9306 87002334  ..c....7......#4
 81000240 d4fe8338 070063ce 08004687 054315a8  ...8..c...F..C..
 81000250 033784fe 93068700 2334d4fe 83280700  .7......#4...(..
 81000260 ddb7b308 10411387 17006379 b700aa97  .....A....cy....
 81000270 9306d002 2380d700 ba87c1bf ba87f1b7  ....#...........
 81000280 0503a946 3347d702 65ff1b07 f3ff29a0  ...F3G..e.....).
 81000290 a946b3c8 d8027d37 63410702 b306f700  .F....}7cA......
 810002a0 13881600 e376b8fe 294833e8 0803aa96  .....v..)H3.....
 810002b0 1b080803 23800601 e1bf9a97 01438146  ....#........C.F
 810002c0 49a00337 84fe9306 87002334 d4fe1863  I..7......#4...c
 810002d0 19a00507 b6870348 0700630a 08009386  .......H..c.....
 810002e0 1700e3f8 b6feaa97 23800701 ddb70143  ........#......C
 810002f0 814681a8 13871700 6370b704 833684fe  .F......cp...6..
 81000300 13888600 233404ff aa9783c6 06002380  ....#4........#.
 81000310 d700ba87 01438146 2da01308 50026301  .....C.F-...P.c.
 81000320 07031388 17006374 b804aa97 2380e700  ......ct....#...
 81000330 c28701a8 368331a0 ba870143 814611a0  ....6.1....C.F..
 81000340 85460506 03470600 0dc7e1da 1b07d7f9  .F...G..........
 81000350 9378f70f 5548e366 18ff1397 28001708  .x..UH.f....(...
 81000360 00001308 68064297 18434297 0287c287  ....h.B..CB.....
 81000370 c9bf63fa b7003e95 23000500 1b850700  ..c...>.#.......
 81000380 62640561 8280fdd9 fd152e95 23000500  bd.a........#...
 81000390 f5b7                                 ..              
Contents of section .rodata.str1.8:
 81000398 6261636b 20747261 63652074 68652075  back trace the u
 810003a8 73657220 61707020 696e2074 68652066  ser app in the f
 810003b8 6f6c6c6f 77696e67 3a0a00             ollowing:..     
Contents of section .rodata:
 810003c4 30ffffff 6efeffff 7effffff 7effffff  0...n...~...~...
 810003d4 7effffff 7effffff 7effffff 7effffff  ~...~...~...~...
 810003e4 7effffff 70ffffff 7effffff 7effffff  ~...p...~...~...
 810003f4 7effffff defdffff 7effffff 7effffff  ~.......~...~...
 81000404 fefeffff 7effffff 7effffff 7effffff  ....~...~...~...
 81000414 7effffff 18feffff                    ~.......        
Contents of section .debug_info:
 0000 6c020000 05000108 00000000 08380000  l............8..
 0010 000c0000 00001b00 00000000 00810000  ................
 0020 0000ca00 00000000 00000000 00000101  ................
 0030 082a0000 00010207 fc000000 0104071d  .*..............
 0040 00000001 08071300 00000101 062c0000  .............,..
 0050 00010205 24010000 09040569 6e740001  ....$......int..
 0060 08050000 00000108 05050000 00010807  ................
 0070 18000000 060f0100 00065800 00008800  ..........X.....
 0080 00000458 00000000 06f50000 00055800  ...X..........X.
 0090 00009d00 0000049d 0000000a 000b08aa  ................
 00a0 00000001 01083300 00000ca3 0000000d  ......3.........
 00b0 14010000 020706c1 00000004 58000000  ............X...
 00c0 000e0e00 00000112 05580000 00a20000  .........X......
 00d0 81000000 00280000 00000000 00019c23  .....(.........#
 00e0 0100000f b6000081 00000000 88000000  ................
 00f0 02010000 05015a09 03980300 81000000  ......Z.........
 0100 000002ba 00008100 00000023 01000007  ...........#....
 0110 c0000081 00000000 74000000 05015a01  ........t.....Z.
 0120 30000003 66310010 8e000081 00000000  0...f1..........
 0130 14000000 00000000 019c4c01 0000029a  ..........L.....
 0140 00008100 0000004c 01000000 03663200  .......L.....f2.
 0150 0f7a0000 81000000 00140000 00000000  .z..............
 0160 00019c75 01000002 86000081 00000000  ...u............
 0170 75010000 00036633 000e6600 00810000  u.....f3..f.....
 0180 00001400 00000000 0000019c 9e010000  ................
 0190 02720000 81000000 009e0100 00000366  .r.............f
 01a0 34000d52 00008100 00000014 00000000  4..R............
 01b0 00000001 9cc70100 00025e00 00810000  ..........^.....
 01c0 0000c701 00000003 6635000c 3e000081  ........f5..>...
 01d0 00000000 14000000 00000000 019cf001  ................
 01e0 0000024a 00008100 000000f0 01000000  ...J............
 01f0 03663600 0b2a0000 81000000 00140000  .f6..*..........
 0200 00000000 00019c19 02000002 36000081  ............6...
 0210 00000000 19020000 00036637 000a1600  ..........f7....
 0220 00810000 00001400 00000000 0000019c  ................
 0230 42020000 02220000 81000000 00420200  B....".......B..
 0240 00001066 38000109 06000000 81000000  ...f8...........
 0250 00160000 00000000 00019c07 0e000081  ................
 0260 00000000 af000000 05015a01 37000000  ..........Z.7...
 0270 1d030000 05000108 e9000000 0c380000  .............8..
 0280 000c4700 00001b00 0000ca00 00810000  ..G.............
 0290 0000c600 00000000 00004601 00000201  ..........F.....
 02a0 082a0000 00020207 fc000000 0204071d  .*..............
 02b0 00000004 58010000 02071c4f 00000002  ....X......O....
 02c0 08071300 00000201 062c0000 00020205  .........,......
 02d0 24010000 0d040569 6e740002 08050000  $......int......
 02e0 00000208 05050000 00042e01 00000211  ................
 02f0 17850000 00020807 18000000 046c0100  .............l..
 0300 0003281b 98000000 0e083501 00000473  ..(.......5....s
 0310 01000003 63188c00 00000f47 01000004  ....c......G....
 0320 09056400 0000cf00 000005cf 00000005  ..d.............
 0330 79000000 05e00000 00059e00 0000000a  y...............
 0340 d4000000 02010833 00000010 d4000000  .......3........
 0350 0adb0000 00111401 00000135 066a0100  ...........5.j..
 0360 81000000 00260000 00000000 00019c45  .....&.........E
 0370 01000006 80010000 351a6400 00000c00  ........5.d.....
 0380 00000788 01008100 00000090 02000001  ................
 0390 015a0208 4201015c 01300101 5d013001  .Z..B..\.0..].0.
 03a0 015e0130 01015f01 30010160 01300101  .^.0.._.0..`.0..
 03b0 61013000 000b0f01 00003164 00000044  a.0.......1d...D
 03c0 01008100 00000026 00000000 00000001  .......&........
 03d0 9ca70100 00067b01 0000310e 64000000  ......{...1.d...
 03e0 36000000 07620100 81000000 00900200  6....b..........
 03f0 0001015a 02084101 015c0130 01015d01  ...Z..A..\.0..].
 0400 3001015e 01300101 5f013001 01600130  0..^.0.._.0..`.0
 0410 01016101 3000000b f5000000 20640000  ..a.0....... d..
 0420 00e20000 81000000 00620000 00000000  .........b......
 0430 00019c80 02000012 73000120 18e00000  ........s.. ....
 0440 00600000 00130876 6c00210b 9e000000  .`.....vl.!.....
 0450 0391a87f 086f7574 00240880 02000003  .....out.$......
 0460 91a87d09 72657300 25076400 00009d00  ..}.res.%.d.....
 0470 00000962 75660027 0fe00000 00c40000  ...buf.'........
 0480 00096e00 280a7900 00000401 00001412  ..n.(.y.........
 0490 01008100 000000aa 0000004b 02000001  ...........K....
 04a0 015a0391 a87d0101 5b030a00 0101015c  .Z...}..[......\
 04b0 03a3015a 01015d02 91480007 36010081  ...Z..]..H..6...
 04c0 00000000 90020000 01015a02 08400101  ..........Z..@..
 04d0 5b0391a8 7d01015d 01300101 5e013001  [...}..].0..^.0.
 04e0 015f0130 01016001 30010161 01300000  ._.0..`.0..a.0..
 04f0 15d40000 00900200 00168500 0000ff00  ................
 0500 175f0100 00010d05 64000000 ca000081  ._......d.......
 0510 00000000 18000000 00000000 019c0651  ...............Q
 0520 0100000d 19430000 00180100 00036131  .....C........a1
 0530 000d2843 00000001 5b036132 000d3343  ..(C....[.a2..3C
 0540 00000001 5c036133 000d3e43 00000001  ....\.a3..>C....
 0550 5d036134 000d4943 00000001 5e036135  ].a4..IC....^.a5
 0560 000d5443 00000001 5f036136 000d5f43  ..TC...._.a6.._C
 0570 00000001 60036137 000e1943 00000001  ....`.a7...C....
 0580 61087265 74000f07 64000000 02916c00  a.ret...d.....l.
 0590 00220200 00050001 083c0200 000a3800  .".......<....8.
 05a0 00000cc7 0000001b 00000090 01008100  ................
 05b0 00000002 02000000 00000090 02000003  ................
 05c0 6c010000 02281b3a 0000000b 08350100  l....(.:.....5..
 05d0 00037301 00000263 182e0000 00010108  ..s....c........
 05e0 2a000000 010207fc 00000001 04071d00  *...............
 05f0 00000108 07130000 00010106 2c000000  ............,...
 0600 01020524 01000003 a1010000 030b1482  ...$............
 0610 0000000c 0405696e 74000108 05000000  ......int.......
 0620 00038601 0000030e 0d820000 00010805  ................
 0630 05000000 032e0100 00031117 af000000  ................
 0640 01080718 0000000d 47010000 010b0776  ........G......v
 0650 00000090 01008100 00000002 02000000  ................
 0660 00000001 9c0f0200 00046f75 7400170f  ..........out...
 0670 0200004e 01000004 6e0023a3 000000a1  ...N....n.#.....
 0680 01000004 73003220 020000f3 01000004  ....s.2 ........
 0690 766c003d 40000000 1a020000 05920100  vl.=@...........
 06a0 000c0890 00000058 02000005 99010000  .......X........
 06b0 0d089000 00002c03 00000270 6f73000e  ......,....pos..
 06c0 0aa30000 00010400 0006c601 00810000  ................
 06d0 00006c00 00000000 00008301 0000026e  ..l............n
 06e0 756d001b 109c0000 00b80500 00070c00  um..............
 06f0 00000269 001c1482 000000df 05000007  ...i............
 0700 2f000000 0264001d 11820000 00190600  /....d..........
 0710 00000000 06320200 81000000 00900000  .....2..........
 0720 00000000 00ee0100 00026e75 6d002510  ..........num.%.
 0730 9c000000 74060000 058b0100 002a109c  ....t........*..
 0740 0000009b 0600000e 63000000 ce010000  ........c.......
 0750 026e6e00 2b159c00 0000c306 00000008  .nn.+...........
 0760 8a020081 00000000 30000000 00000000  ........0.......
 0770 0269002d 14820000 00ea0600 00000008  .i.-............
 0780 c2020081 00000000 32000000 00000000  ........2.......
 0790 02733200 37172002 00001307 00000000  .s2.7. .........
 07a0 09140200 00010108 33000000 0f140200  ........3.......
 07b0 00091b02 000000                      .......         
Contents of section .debug_abbrev:
 0000 0124000b 0b3e0b03 0e000002 48007d01  .$...>......H.}.
 0010 7f130000 032e013f 1903083a 21013b0b  .......?...:!.;.
 0020 39210611 01120740 187a1901 13000004  9!.....@.z......
 0030 05004913 00000549 0002187e 18000006  ..I....I...~....
 0040 2e013f19 030e3a21 023b0b39 21052719  ..?...:!.;.9!.'.
 0050 49133c19 01130000 0748017d 017f1300  I.<......H.}....
 0060 00081101 250e130b 031f1b1f 11011207  ....%...........
 0070 10170000 0924000b 0b3e0b03 0800000a  .....$...>......
 0080 18000000 0b0f000b 0b491300 000c2600  .........I....&.
 0090 49130000 0d2e013f 19030e3a 0b3b0b39  I......?...:.;.9
 00a0 0b27193c 19011300 000e2e01 3f19030e  .'.<........?...
 00b0 3a0b3b0b 390b2719 49131101 12074018  :.;.9.'.I.....@.
 00c0 7a190113 00000f48 017d017f 13011300  z......H.}......
 00d0 00102e01 3f190308 3a0b3b0b 390b1101  ....?...:.;.9...
 00e0 12074018 7a190000 00014900 02187e18  ..@.z.....I...~.
 00f0 00000224 000b0b3e 0b030e00 00030500  ...$...>........
 0100 03083a21 013b0b39 0b491302 18000004  ..:!.;.9.I......
 0110 1600030e 3a0b3b0b 390b4913 00000505  ....:.;.9.I.....
 0120 00491300 00060500 030e3a21 013b0b39  .I........:!.;.9
 0130 0b491302 17000007 48017d01 7f130000  .I......H.}.....
 0140 08340003 083a2101 3b0b390b 49130218  .4...:!.;.9.I...
 0150 00000934 0003083a 21013b0b 390b4913  ...4...:!.;.9.I.
 0160 02170000 0a0f000b 21084913 00000b2e  ........!.I.....
 0170 013f1903 0e3a2101 3b0b3921 05271949  .?...:!.;.9!.'.I
 0180 13110112 0740187a 19011300 000c1101  .....@.z........
 0190 250e130b 031f1b1f 11011207 10170000  %...............
 01a0 0d24000b 0b3e0b03 0800000e 0f000b0b  .$...>..........
 01b0 030e0000 0f2e013f 19030e3a 0b3b0b39  .......?...:.;.9
 01c0 0b271949 133c1901 13000010 26004913  .'.I.<......&.I.
 01d0 0000112e 013f1903 0e3a0b3b 0b390b27  .....?...:.;.9.'
 01e0 19110112 0740187a 19011300 00120500  .....@.z........
 01f0 03083a0b 3b0b390b 49130217 00001318  ..:.;.9.I.......
 0200 00000014 48017d01 7f130113 00001501  ....H.}.........
 0210 01491301 13000016 21004913 2f0b0000  .I......!.I./...
 0220 172e013f 19030e3a 0b3b0b39 0b271949  ...?...:.;.9.'.I
 0230 13110112 0740187a 19000000 0124000b  .....@.z.....$..
 0240 0b3e0b03 0e000002 34000308 3a21013b  .>......4...:!.;
 0250 0b390b49 13021700 00031600 030e3a0b  .9.I..........:.
 0260 3b0b390b 49130000 04050003 083a2101  ;.9.I........:!.
 0270 3b210b39 0b491302 17000005 3400030e  ;!.9.I......4...
 0280 3a21013b 0b390b49 13021700 00060b01  :!.;.9.I........
 0290 11011207 01130000 070b0155 17000008  ...........U....
 02a0 0b011101 12070000 090f000b 21084913  ............!.I.
 02b0 00000a11 01250e13 0b031f1b 1f110112  .....%..........
 02c0 07101700 000b0f00 0b0b030e 00000c24  ...............$
 02d0 000b0b3e 0b030800 000d2e01 3f19030e  ...>........?...
 02e0 3a0b3b0b 390b2719 49131101 12074018  :.;.9.'.I.....@.
 02f0 7a190113 00000e0b 01551701 1300000f  z........U......
 0300 26004913 000000                      &.I....         
Contents of section .debug_aranges:
 0000 2c000000 02000000 00000800 00000000  ,...............
 0010 00000081 00000000 ca000000 00000000  ................
 0020 00000000 00000000 00000000 00000000  ................
 0030 2c000000 02007002 00000800 00000000  ,.....p.........
 0040 ca000081 00000000 c6000000 00000000  ................
 0050 00000000 00000000 00000000 00000000  ................
 0060 2c000000 02009105 00000800 00000000  ,...............
 0070 90010081 00000000 02020000 00000000  ................
 0080 00000000 00000000 00000000 00000000  ................
Contents of section .debug_line:
 0000 42010000 05000800 33000000 010101fb  B.......3.......
 0010 0e0d0001 01010100 00000100 00010101  ................
 0020 1f021b00 00003700 00000201 1f020f03  ......7.........
 0030 00000000 00050000 00013c00 00000105  ..........<.....
 0040 0b000902 00000081 00000000 1a050d03  ................
 0050 00090800 01052106 03000906 0001050b  ......!.........
 0060 06030109 08000105 0d030009 08000105  ................
 0070 13060300 09040001 050b0603 01090800  ................
 0080 01050d03 00090800 01051306 03000904  ................
 0090 0001050b 06030109 08000105 0d030009  ................
 00a0 08000105 13060300 09040001 050b0603  ................
 00b0 01090800 01050d03 00090800 01051306  ................
 00c0 03000904 0001050b 06030109 08000105  ................
 00d0 0d030009 08000105 13060300 09040001  ................
 00e0 050b0603 01090800 01050d03 00090800  ................
 00f0 01051306 03000904 0001050b 06030109  ................
 0100 08000105 0d030009 08000105 13060300  ................
 0110 09040001 05100603 02090800 01050303  ................
 0120 01090800 01030109 0c000103 01090400  ................
 0130 01030109 06000105 01060301 09000001  ................
 0140 090a0000 01014601 00000500 08004500  ......F.......E.
 0150 00000101 01fb0e0d 00010101 01000000  ................
 0160 01000001 01011f04 1b000000 37000000  ............7...
 0170 57000000 5e000000 02011f02 0f054700  W...^.........G.
 0180 0000004c 00000001 ab000000 02b30000  ...L............
 0190 0003bc00 00000205 1d000902 ca000081  ................
 01a0 00000000 030d0105 03030109 06000103  ................
 01b0 04090000 01030709 08000105 01060301  ................
 01c0 09000001 05200603 05090a00 01050303  ..... ..........
 01d0 01091a00 01030109 00000103 02090800  ................
 01e0 01030109 00000105 0d060300 09000001  ................
 01f0 05030603 01090e00 01030109 00000103  ................
 0200 01090000 01051206 03000900 00010526  ...............&
 0210 03000904 00010002 04010300 09080001  ................
 0220 05030002 04040603 03090200 01050a00  ................
 0230 02040406 03000900 00010501 00020404  ................
 0240 03010916 00010526 037c0908 00010514  .......&.|......
 0250 06030909 06000105 03030109 0a000105  ................
 0260 0a060300 09000001 05010301 09140001  ................
 0270 05210603 02090800 01050303 01090a00  .!..............
 0280 01050106 03010914 00010908 00000101  ................
 0290 05060000 05000800 40000000 010101fb  ........@.......
 02a0 0e0d0001 01010100 00000100 00010101  ................
 02b0 1f041b00 00005900 00005e00 00005700  ......Y...^...W.
 02c0 00000201 1f020f04 c7000000 00cc0000  ................
 02d0 0001b300 000002ab 00000003 05410009  .............A..
 02e0 02900100 81000000 00030a01 05030301  ................
 02f0 090a0001 03010900 00010301 09000001  ................
 0300 03020900 0001050a 06037e09 00000105  ..........~.....
 0310 08037f09 02000103 7f090200 01050303  ................
 0320 04090200 01050b06 03070902 00010301  ................
 0330 09000001 050e0603 00090000 01051a00  ................
 0340 02040106 03000908 0001051d 00020401  ................
 0350 06030009 00000105 27000204 01030009  ........'.......
 0360 04000105 0b060301 09080001 050e0603  ................
 0370 00090000 01051a00 02040106 03000906  ................
 0380 0001051d 00020401 06030009 00000105  ................
 0390 27000204 01030009 02000105 0b000204  '...............
 03a0 01060302 09080001 05310002 04010603  .........1......
 03b0 00090000 01050b00 02040406 03010910  ................
 03c0 00010510 00020404 03000900 00010514  ................
 03d0 00020404 06030009 00000103 00090200  ................
 03e0 01050b06 037f0904 00010531 06030009  ...........1....
 03f0 00000105 33030009 08000105 31030009  ....3.......1...
 0400 10000105 29000204 03030309 04000105  ....)...........
 0410 1f000204 05030009 04000105 29000204  ............)...
 0420 05030009 02000105 51000204 0606037e  ........Q......~
 0430 09040001 05100002 04060603 02090200  ................
 0440 01054a00 02040506 037e0902 0001050d  ..J......~......
 0450 03010904 00010520 06030009 00000105  ....... ........
 0460 1a030009 04000105 11030009 04000105  ................
 0470 0d060301 09020001 05100603 00090000  ................
 0480 01051c00 02040106 03000908 00010529  ...............)
 0490 00020401 06030009 00000100 02040203  ................
 04a0 00090600 01051403 7e090600 01051303  ........~.......
 04b0 04090400 01051203 01090200 01050b06  ................
 04c0 03040904 00010531 06030009 00000105  .......1........
 04d0 0b000204 04060301 09140001 050e0002  ................
 04e0 04040603 00090000 01050b06 03040904  ................
 04f0 00010301 09000001 05100300 09000001  ................
 0500 05150603 00090000 01051003 7f090200  ................
 0510 01050b03 01090200 01053303 7a090200  ..........3.z...
 0520 01050d06 03020912 00010511 06030009  ................
 0530 00000105 0d060301 09040001 05100603  ................
 0540 00090000 01051c00 02040106 03000908  ................
 0550 0001051f 00020401 06030009 00000105  ................
 0560 29000204 01030009 02000105 10000204  )...............
 0570 01030009 08000103 00090400 01052f00  ............../.
 0580 02040306 03030904 0001051f 00020401  ................
 0590 03000902 00010522 00020401 06030009  ......."........
 05a0 00000105 1f000204 01030009 06000105  ................
 05b0 0b060302 09020001 05100300 09000001  ................
 05c0 05140603 00090000 01050b03 00090400  ................
 05d0 01050d00 02040206 03020902 00010511  ................
 05e0 00020402 06030009 00000105 2d000204  ............-...
 05f0 0206037e 09060001 05260002 04010300  ...~.....&......
 0600 09020001 050d0301 09040001 05150603  ................
 0610 00090000 01051903 00090400 01051003  ................
 0620 00090400 01052200 02040106 03000904  ......".........
 0630 0001053c 00020401 06030009 00000105  ...<............
 0640 25000204 01030009 06000105 35000204  %...........5...
 0650 01030009 02000105 2f000204 01030009  ......../.......
 0660 04000105 0b060303 09060001 050f0603  ................
 0670 00090000 01050b06 03010902 00010301  ................
 0680 09000001 03010900 00010513 06037e09  ..............~.
 0690 00000105 12030109 02000105 0b030109  ................
 06a0 02000106 03030902 00010517 06030009  ................
 06b0 00000105 0b060301 090e0001 05110603  ................
 06c0 00090000 01050d06 03020902 0001050f  ................
 06d0 06030009 00000105 10037f09 02000105  ................
 06e0 1206037f 09020001 050d0301 09080001  ................
 06f0 05100603 00090000 01051c00 02040106  ................
 0700 03000908 0001051f 00020401 06030009  ................
 0710 00000105 29000204 01030009 02000105  ....)...........
 0720 13030309 06000105 12030109 02000105  ................
 0730 0b060304 09040001 050e0603 00090000  ................
 0740 01051a06 03000908 0001052f 06030009  .........../....
 0750 00000105 1d030009 0c000105 29030009  ............)...
 0760 02000105 27030009 04000105 0e030009  ....'...........
 0770 04000105 13030109 02000105 12030109  ................
 0780 02000105 0c060306 09040001 050f0603  ................
 0790 00090000 01050a06 03020908 0001050d  ................
 07a0 06030009 00000105 07060301 09080001  ................
 07b0 050a0603 00090000 01051403 00090200  ................
 07c0 01050d03 7f090400 01051303 49090400  ............I...
 07d0 01050e03 2d090400 01051303 01090200  ....-...........
 07e0 01051203 01090200 01050e03 07090400  ................
 07f0 01050f06 03460902 0001050a 00020401  .....F..........
 0800 03000902 00010505 03010906 00010508  ................
 0810 06030009 00000105 07060301 09020001  ................
 0820 050d0603 39092200 01050306 03030904  ....9.".........
 0830 00010506 06030009 00000105 05060301  ................
 0840 09040001 05080603 00090000 01050e03  ................
 0850 00090200 01050306 03030904 00010501  ................
 0860 06030109 00000105 0806037d 090a0001  ...........}....
 0870 050b0603 00090000 01050506 03010902  ................
 0880 00010508 06030009 00000105 10030009  ................
 0890 04000109 06000001 01                 .........       
Contents of section .debug_str:
 0000 6c6f6e67 206c6f6e 6720696e 74006d61  long long int.ma
 0010 696e006c 6f6e6720 6c6f6e67 20756e73  in.long long uns
 0020 69676e65 6420696e 7400756e 7369676e  igned int.unsign
 0030 65642063 68617200 474e5520 43393920  ed char.GNU C99 
 0040 31312e31 2e30202d 6d636d6f 64656c3d  11.1.0 -mcmodel=
 0050 6d656461 6e79202d 6d74756e 653d726f  medany -mtune=ro
 0060 636b6574 202d6d61 7263683d 72763634  cket -march=rv64
 0070 696d6166 6463202d 6d616269 3d6c7036  imafdc -mabi=lp6
 0080 3464202d 6d617263 683d7276 3634696d  4d -march=rv64im
 0090 61666463 202d6720 2d4f6720 2d737464  afdc -g -Og -std
 00a0 3d676e75 3939202d 666e6f2d 6275696c  =gnu99 -fno-buil
 00b0 74696e20 2d666e6f 2d64656c 6574652d  tin -fno-delete-
 00c0 6e756c6c 2d706f69 6e746572 2d636865  null-pointer-che
 00d0 636b7320 2d666e6f 2d504945 202d666e  cks -fno-PIE -fn
 00e0 6f2d6f6d 69742d66 72616d65 2d706f69  o-omit-frame-poi
 00f0 6e746572 00707269 6e747500 73686f72  nter.printu.shor
 0100 7420756e 7369676e 65642069 6e740065  t unsigned int.e
 0110 78697400 7072696e 745f6261 636b7472  xit.print_backtr
 0120 61636500 73686f72 7420696e 74007369  ace.short int.si
 0130 7a655f74 005f5f62 75696c74 696e5f76  ze_t.__builtin_v
 0140 615f6c69 73740076 736e7072 696e7466  a_list.vsnprintf
 0150 00737973 6e756d00 75696e74 36340064  .sysnum.uint64.d
 0160 6f5f7573 65725f63 616c6c00 5f5f676e  o_user_call.__gn
 0170 75635f76 615f6c69 73740063 6f646500  uc_va_list.code.
 0180 6c617965 7200626f 6f6c0064 69676974  layer.bool.digit
 0190 7300666f 726d6174 006c6f6e 67617267  s.format.longarg
 01a0 00696e74 333200                      .int32.         
Contents of section .debug_line_str:
 0000 75736572 2f617070 5f707269 6e745f62  user/app_print_b
 0010 61636b74 72616365 2e63002f 686f6d65  acktrace.c./home
 0020 2f68742f 48555354 2d504b45 2f726973  /ht/HUST-PKE/ris
 0030 63762d70 6b650075 73657200 75736572  cv-pke.user.user
 0040 5f6c6962 2e680075 7365722f 75736572  _lib.h.user/user
 0050 5f6c6962 2e63002e 2f757469 6c002f68  _lib.c../util./h
 0060 6f6d652f 68742f48 5553542d 504b452f  ome/ht/HUST-PKE/
 0070 72697363 7636342d 656c662d 6763632f  riscv64-elf-gcc/
 0080 6c69622f 6763632f 72697363 7636342d  lib/gcc/riscv64-
 0090 756e6b6e 6f776e2d 656c662f 31312e31  unknown-elf/11.1
 00a0 2e302f69 6e636c75 64650074 79706573  .0/include.types
 00b0 2e680073 74646172 672e6800 736e7072  .h.stdarg.h.snpr
 00c0 696e7466 2e680075 74696c2f 736e7072  intf.h.util/snpr
 00d0 696e7466 2e6300                      intf.c.         
Contents of section .comment:
 0000 4743433a 2028474e 55292031 312e312e  GCC: (GNU) 11.1.
 0010 3000                                 0.              
Contents of section .riscv.attributes:
 0000 41340000 00726973 63760001 2a000000  A4...riscv..*...
 0010 04100572 76363469 3270305f 6d327030  ...rv64i2p0_m2p0
 0020 5f613270 305f6632 70305f64 3270305f  _a2p0_f2p0_d2p0_
 0030 63327030 00                          c2p0.           
Contents of section .debug_frame:
 0000 0c000000 ffffffff 0300017c 010d0200  ...........|....
 0010 2c000000 00000000 00000081 00000000  ,...............
 0020 16000000 00000000 420e1044 81028804  ........B..D....
 0030 420c0800 48c142c8 0c021042 0e000000  B...H.B....B....
 0040 2c000000 00000000 16000081 00000000  ,...............
 0050 14000000 00000000 420e1044 81028804  ........B..D....
 0060 420c0800 46c142c8 0c021042 0e000000  B...F.B....B....
 0070 2c000000 00000000 2a000081 00000000  ,.......*.......
 0080 14000000 00000000 420e1044 81028804  ........B..D....
 0090 420c0800 46c142c8 0c021042 0e000000  B...F.B....B....
 00a0 2c000000 00000000 3e000081 00000000  ,.......>.......
 00b0 14000000 00000000 420e1044 81028804  ........B..D....
 00c0 420c0800 46c142c8 0c021042 0e000000  B...F.B....B....
 00d0 2c000000 00000000 52000081 00000000  ,.......R.......
 00e0 14000000 00000000 420e1044 81028804  ........B..D....
 00f0 420c0800 46c142c8 0c021042 0e000000  B...F.B....B....
 0100 2c000000 00000000 66000081 00000000  ,.......f.......
 0110 14000000 00000000 420e1044 81028804  ........B..D....
 0120 420c0800 46c142c8 0c021042 0e000000  B...F.B....B....
 0130 2c000000 00000000 7a000081 00000000  ,.......z.......
 0140 14000000 00000000 420e1044 81028804  ........B..D....
 0150 420c0800 46c142c8 0c021042 0e000000  B...F.B....B....
 0160 2c000000 00000000 8e000081 00000000  ,...............
 0170 14000000 00000000 420e1044 81028804  ........B..D....
 0180 420c0800 46c142c8 0c021042 0e000000  B...F.B....B....
 0190 2c000000 00000000 a2000081 00000000  ,...............
 01a0 28000000 00000000 420e1044 81028804  (.......B..D....
 01b0 420c0800 5ac142c8 0c021042 0e000000  B...Z.B....B....
 01c0 0c000000 ffffffff 0300017c 010d0200  ...........|....
 01d0 2c000000 c0010000 ca000081 00000000  ,...............
 01e0 18000000 00000000 420e2042 8802420c  ........B. B..B.
 01f0 08004ec8 0c022042 0e000000 00000000  ..N... B........
 0200 34000000 c0010000 e2000081 00000000  4...............
 0210 62000000 00000000 420ee002 44811288  b.......B...D...
 0220 14420c08 40024e0a c142c80c 02e00242  .B..@.N..B.....B
 0230 0e00420b 00000000 2c000000 c0010000  ..B.....,.......
 0240 44010081 00000000 26000000 00000000  D.......&.......
 0250 420e1044 81028804 420c0800 58c142c8  B..D....B...X.B.
 0260 0c021042 0e000000 2c000000 c0010000  ...B....,.......
 0270 6a010081 00000000 26000000 00000000  j.......&.......
 0280 420e1044 81028804 420c0800 58c142c8  B..D....B...X.B.
 0290 0c021042 0e000000 0c000000 ffffffff  ...B............
 02a0 0300017c 010d0200 2c000000 98020000  ...|....,.......
 02b0 90010081 00000000 02020000 00000000  ................
 02c0 420e2042 8802420c 080003ec 010ac80c  B. B..B.........
 02d0 0220420e 00420b00                    . B..B..        
Contents of section .debug_loclists:
 0000 3e010000 05000800 00000000 076a0100  >............j..
 0010 81000000 00840100 81000000 00015a07  ..............Z.
 0020 84010081 00000000 90010081 00000000  ................
 0030 04a3015a 9f000744 01008100 0000005e  ...Z...D.......^
 0040 01008100 00000001 5a075e01 00810000  ........Z.^.....
 0050 00006a01 00810000 000004a3 015a9f00  ..j..........Z..
 0060 07e20000 81000000 000e0100 81000000  ................
 0070 00015a07 0e010081 00000000 11010081  ..Z.............
 0080 00000000 015c0711 01008100 00000044  .....\.........D
 0090 01008100 00000004 a3015a9f 00071201  ..........Z.....
 00a0 00810000 00003201 00810000 0000015a  ......2........Z
 00b0 073e0100 81000000 00440100 81000000  .>.......D......
 00c0 00015a00 07120100 81000000 002e0100  ..Z.............
 00d0 81000000 000491a8 7d9f072e 01008100  ........}.......
 00e0 00000035 01008100 00000001 5b073501  ...5........[.5.
 00f0 00810000 00004401 00810000 00000491  ......D.........
 0100 a87d9f00 07200100 81000000 00350100  .}... .......5..
 0110 81000000 00015c00 07ca0000 81000000  ......\.........
 0120 00dc0000 81000000 00015a07 dc000081  ..........Z.....
 0130 00000000 e2000081 00000000 04a3015a  ...............Z
 0140 9f00e105 00000500 08000000 00000790  ................
 0150 01008100 00000078 03008100 00000001  .......x........
 0160 5a077803 00810000 00008603 00810000  Z.x.............
 0170 000004a3 015a9f07 86030081 00000000  .....Z..........
 0180 8c030081 00000000 015a078c 03008100  .........Z......
 0190 00000092 03008100 00000004 a3015a9f  ..............Z.
 01a0 00079001 00810000 00007c03 00810000  ..........|.....
 01b0 0000015b 077c0300 81000000 00860300  ...[.|..........
 01c0 81000000 0004a301 5b9f0786 03008100  ........[.......
 01d0 0000008a 03008100 00000001 5b078a03  ............[...
 01e0 00810000 00009203 00810000 0000037b  ...............{
 01f0 019f0007 90010081 00000000 44030081  ............D...
 0200 00000000 015c0744 03008100 00000092  .....\.D........
 0210 03008100 00000001 5c000790 01008100  ........\.......
 0220 000000a0 01008100 00000001 5d07a001  ............]...
 0230 00810000 0000a201 00810000 00000278  ...............x
 0240 6807a201 00810000 00009203 00810000  h...............
 0250 000004a3 015d9f00 079a0100 81000000  .....]..........
 0260 00a20100 81000000 0002309f 07a20100  ..........0.....
 0270 81000000 00c60100 81000000 00015d07  ..............].
 0280 dc010081 00000000 e2010081 00000000  ................
 0290 015d07e4 01008100 000000ec 01008100  .]..............
 02a0 00000001 5d073202 00810000 00003e02  ....].2.......>.
 02b0 00810000 0000015d 07500200 81000000  .......].P......
 02c0 00580200 81000000 00015d07 bc020081  .X........].....
 02d0 00000000 c2020081 00000000 02309f07  .............0..
 02e0 c2020081 00000000 ca020081 00000000  ................
 02f0 015d07f4 02008100 00000000 03008100  .]..............
 0300 00000001 5d071a03 00810000 00003e03  ....].........>.
 0310 00810000 0000015d 07400300 81000000  .......].@......
 0320 00920300 81000000 00015d00 079a0100  ..........].....
 0330 81000000 00a20100 81000000 0002309f  ..............0.
 0340 07a20100 81000000 00c60100 81000000  ................
 0350 0002319f 07dc0100 81000000 00f80100  ..1.............
 0360 81000000 00015607 32020081 00000000  ......V.2.......
 0370 4e020081 00000000 01560750 02008100  N........V.P....
 0380 00000080 02008100 00000001 5607bc02  ............V...
 0390 00810000 0000c202 00810000 00000230  ...............0
 03a0 9f07c202 00810000 0000f002 00810000  ................
 03b0 00000156 07f40200 81000000 00160300  ...V............
 03c0 81000000 00015607 1a030081 00000000  ......V.........
 03d0 36030081 00000000 01560738 03008100  6........V.8....
 03e0 0000003c 03008100 00000001 56074003  ...<........V.@.
 03f0 00810000 00009203 00810000 00000156  ...............V
 0400 00079a01 00810000 0000a201 00810000  ................
 0410 00000230 9f07a201 00810000 0000a601  ...0............
 0420 00810000 0000015f 07a60100 81000000  ......._........
 0430 00b80100 81000000 00015e07 b8010081  ..........^.....
 0440 00000000 c6010081 00000000 015f07dc  ............._..
 0450 01008100 000000f8 01008100 00000001  ................
 0460 5f07f801 00810000 00000602 00810000  _...............
 0470 00000160 07060200 81000000 00180200  ...`............
 0480 81000000 00015f07 18020081 00000000  ......_.........
 0490 28020081 00000000 0160072c 02008100  (........`.,....
 04a0 0000006a 02008100 00000001 5f076a02  ...j........_.j.
 04b0 00810000 00008002 00810000 0000015e  ...............^
 04c0 07800200 81000000 00d20200 81000000  ................
 04d0 00015f07 d2020081 00000000 d6020081  .._.............
 04e0 00000000 015d07d6 02008100 000000e2  .....]..........
 04f0 02008100 00000001 5f07e202 00810000  ........_.......
 0500 0000ee02 00810000 0000015d 07ee0200  ...........]....
 0510 81000000 00f80200 81000000 00015f07  .............._.
 0520 f8020081 00000000 1a030081 00000000  ................
 0530 015e071a 03008100 00000026 03008100  .^.........&....
 0540 00000001 5f072603 00810000 00003403  ...._.&.......4.
 0550 00810000 00000160 07340300 81000000  .......`.4......
 0560 00380300 81000000 00015f07 38030081  .8........_.8...
 0570 00000000 40030081 00000000 015e0740  ....@........^.@
 0580 03008100 0000006e 03008100 00000001  .......n........
 0590 5f076e03 00810000 00007203 00810000  _.n.......r.....
 05a0 00000160 07720300 81000000 00920300  ...`.r..........
 05b0 81000000 00015f00 07d60100 81000000  ......_.........
 05c0 00dc0100 81000000 00016107 f8010081  ..........a.....
 05d0 00000000 32020081 00000000 01610007  ....2........a..
 05e0 f8010081 00000000 04020081 00000000  ................
 05f0 015d0706 02008100 00000028 02008100  .].........(....
 0600 00000001 5d072c02 00810000 00003002  ....].,.......0.
 0610 00810000 0000015d 0007f801 00810000  .......]........
 0620 0000fc01 00810000 0000015e 07fc0100  ...........^....
 0630 81000000 00040200 81000000 000d8100  ................
 0640 7d003224 08ff1a26 3f1a9f07 14020081  }.2$...&?.......
 0650 00000000 26020081 00000000 015e0726  ....&........^.&
 0660 02008100 00000028 02008100 00000003  .......(........
 0670 7e509f00 07460200 81000000 00500200  ~P...F.......P..
 0680 81000000 00016107 62020081 00000000  ......a.b.......
 0690 c2020081 00000000 01610007 4a020081  .........a..J...
 06a0 00000000 50020081 00000000 02319f07  ....P........1..
 06b0 80020081 00000000 be020081 00000000  ................
 06c0 01560007 4a020081 00000000 50020081  .V..J.......P...
 06d0 00000000 01610780 02008100 0000008e  .....a..........
 06e0 02008100 00000001 5e00078e 02008100  ........^.......
 06f0 00000090 02008100 00000003 767f9f07  ............v...
 0700 90020081 00000000 c2020081 00000000  ................
 0710 015e0007 d2020081 00000000 f4020081  .^..............
 0720 00000000 015e00                      .....^.         
Contents of section .debug_rnglists:
 0000 93000000 05000800 00000000 06d60100  ................
 0010 81000000 00dc0100 81000000 0006f801  ................
 0020 00810000 00002c02 00810000 00000006  ......,.........
 0030 f8010081 00000000 02020081 00000000  ................
 0040 06040200 81000000 00060200 81000000  ................
 0050 00060a02 00810000 00002802 00810000  ..........(.....
 0060 00000006 4a020081 00000000 4c020081  ....J.......L...
 0070 00000000 064e0200 81000000 00500200  .....N.......P..
 0080 81000000 00068002 00810000 00008a02  ................
 0090 00810000 000000                      .......         

Disassembly of section .text:

0000000081000000 <f8>:
    81000000:	1141                	addi	sp,sp,-16
    81000002:	e406                	sd	ra,8(sp)
    81000004:	e022                	sd	s0,0(sp)
    81000006:	0800                	addi	s0,sp,16
    81000008:	451d                	li	a0,7
    8100000a:	160000ef          	jal	ra,8100016a <print_backtrace>
    8100000e:	60a2                	ld	ra,8(sp)
    81000010:	6402                	ld	s0,0(sp)
    81000012:	0141                	addi	sp,sp,16
    81000014:	8082                	ret

0000000081000016 <f7>:
    81000016:	1141                	addi	sp,sp,-16
    81000018:	e406                	sd	ra,8(sp)
    8100001a:	e022                	sd	s0,0(sp)
    8100001c:	0800                	addi	s0,sp,16
    8100001e:	fe3ff0ef          	jal	ra,81000000 <f8>
    81000022:	60a2                	ld	ra,8(sp)
    81000024:	6402                	ld	s0,0(sp)
    81000026:	0141                	addi	sp,sp,16
    81000028:	8082                	ret

000000008100002a <f6>:
    8100002a:	1141                	addi	sp,sp,-16
    8100002c:	e406                	sd	ra,8(sp)
    8100002e:	e022                	sd	s0,0(sp)
    81000030:	0800                	addi	s0,sp,16
    81000032:	fe5ff0ef          	jal	ra,81000016 <f7>
    81000036:	60a2                	ld	ra,8(sp)
    81000038:	6402                	ld	s0,0(sp)
    8100003a:	0141                	addi	sp,sp,16
    8100003c:	8082                	ret

000000008100003e <f5>:
    8100003e:	1141                	addi	sp,sp,-16
    81000040:	e406                	sd	ra,8(sp)
    81000042:	e022                	sd	s0,0(sp)
    81000044:	0800                	addi	s0,sp,16
    81000046:	fe5ff0ef          	jal	ra,8100002a <f6>
    8100004a:	60a2                	ld	ra,8(sp)
    8100004c:	6402                	ld	s0,0(sp)
    8100004e:	0141                	addi	sp,sp,16
    81000050:	8082                	ret

0000000081000052 <f4>:
    81000052:	1141                	addi	sp,sp,-16
    81000054:	e406                	sd	ra,8(sp)
    81000056:	e022                	sd	s0,0(sp)
    81000058:	0800                	addi	s0,sp,16
    8100005a:	fe5ff0ef          	jal	ra,8100003e <f5>
    8100005e:	60a2                	ld	ra,8(sp)
    81000060:	6402                	ld	s0,0(sp)
    81000062:	0141                	addi	sp,sp,16
    81000064:	8082                	ret

0000000081000066 <f3>:
    81000066:	1141                	addi	sp,sp,-16
    81000068:	e406                	sd	ra,8(sp)
    8100006a:	e022                	sd	s0,0(sp)
    8100006c:	0800                	addi	s0,sp,16
    8100006e:	fe5ff0ef          	jal	ra,81000052 <f4>
    81000072:	60a2                	ld	ra,8(sp)
    81000074:	6402                	ld	s0,0(sp)
    81000076:	0141                	addi	sp,sp,16
    81000078:	8082                	ret

000000008100007a <f2>:
    8100007a:	1141                	addi	sp,sp,-16
    8100007c:	e406                	sd	ra,8(sp)
    8100007e:	e022                	sd	s0,0(sp)
    81000080:	0800                	addi	s0,sp,16
    81000082:	fe5ff0ef          	jal	ra,81000066 <f3>
    81000086:	60a2                	ld	ra,8(sp)
    81000088:	6402                	ld	s0,0(sp)
    8100008a:	0141                	addi	sp,sp,16
    8100008c:	8082                	ret

000000008100008e <f1>:
    8100008e:	1141                	addi	sp,sp,-16
    81000090:	e406                	sd	ra,8(sp)
    81000092:	e022                	sd	s0,0(sp)
    81000094:	0800                	addi	s0,sp,16
    81000096:	fe5ff0ef          	jal	ra,8100007a <f2>
    8100009a:	60a2                	ld	ra,8(sp)
    8100009c:	6402                	ld	s0,0(sp)
    8100009e:	0141                	addi	sp,sp,16
    810000a0:	8082                	ret

00000000810000a2 <main>:
    810000a2:	1141                	addi	sp,sp,-16
    810000a4:	e406                	sd	ra,8(sp)
    810000a6:	e022                	sd	s0,0(sp)
    810000a8:	0800                	addi	s0,sp,16
    810000aa:	00000517          	auipc	a0,0x0
    810000ae:	2ee50513          	addi	a0,a0,750 # 81000398 <vsnprintf+0x208>
    810000b2:	030000ef          	jal	ra,810000e2 <printu>
    810000b6:	fd9ff0ef          	jal	ra,8100008e <f1>
    810000ba:	4501                	li	a0,0
    810000bc:	088000ef          	jal	ra,81000144 <exit>
    810000c0:	4501                	li	a0,0
    810000c2:	60a2                	ld	ra,8(sp)
    810000c4:	6402                	ld	s0,0(sp)
    810000c6:	0141                	addi	sp,sp,16
    810000c8:	8082                	ret

00000000810000ca <do_user_call>:
    810000ca:	1101                	addi	sp,sp,-32
    810000cc:	ec22                	sd	s0,24(sp)
    810000ce:	1000                	addi	s0,sp,32
    810000d0:	00000073          	ecall
    810000d4:	fea42623          	sw	a0,-20(s0)
    810000d8:	fec42503          	lw	a0,-20(s0)
    810000dc:	6462                	ld	s0,24(sp)
    810000de:	6105                	addi	sp,sp,32
    810000e0:	8082                	ret

00000000810000e2 <printu>:
    810000e2:	710d                	addi	sp,sp,-352
    810000e4:	ee06                	sd	ra,280(sp)
    810000e6:	ea22                	sd	s0,272(sp)
    810000e8:	1200                	addi	s0,sp,288
    810000ea:	e40c                	sd	a1,8(s0)
    810000ec:	e810                	sd	a2,16(s0)
    810000ee:	ec14                	sd	a3,24(s0)
    810000f0:	f018                	sd	a4,32(s0)
    810000f2:	f41c                	sd	a5,40(s0)
    810000f4:	03043823          	sd	a6,48(s0)
    810000f8:	03143c23          	sd	a7,56(s0)
    810000fc:	00840693          	addi	a3,s0,8
    81000100:	fed43423          	sd	a3,-24(s0)
    81000104:	862a                	mv	a2,a0
    81000106:	10000593          	li	a1,256
    8100010a:	ee840513          	addi	a0,s0,-280
    8100010e:	082000ef          	jal	ra,81000190 <vsnprintf>
    81000112:	0005071b          	sext.w	a4,a0
    81000116:	0ff00793          	li	a5,255
    8100011a:	02e7e263          	bltu	a5,a4,8100013e <printu+0x5c>
    8100011e:	862a                	mv	a2,a0
    81000120:	4881                	li	a7,0
    81000122:	4801                	li	a6,0
    81000124:	4781                	li	a5,0
    81000126:	4701                	li	a4,0
    81000128:	4681                	li	a3,0
    8100012a:	ee840593          	addi	a1,s0,-280
    8100012e:	04000513          	li	a0,64
    81000132:	f99ff0ef          	jal	ra,810000ca <do_user_call>
    81000136:	60f2                	ld	ra,280(sp)
    81000138:	6452                	ld	s0,272(sp)
    8100013a:	6135                	addi	sp,sp,352
    8100013c:	8082                	ret
    8100013e:	10000613          	li	a2,256
    81000142:	bff9                	j	81000120 <printu+0x3e>

0000000081000144 <exit>:
    81000144:	1141                	addi	sp,sp,-16
    81000146:	e406                	sd	ra,8(sp)
    81000148:	e022                	sd	s0,0(sp)
    8100014a:	0800                	addi	s0,sp,16
    8100014c:	85aa                	mv	a1,a0
    8100014e:	4881                	li	a7,0
    81000150:	4801                	li	a6,0
    81000152:	4781                	li	a5,0
    81000154:	4701                	li	a4,0
    81000156:	4681                	li	a3,0
    81000158:	4601                	li	a2,0
    8100015a:	04100513          	li	a0,65
    8100015e:	f6dff0ef          	jal	ra,810000ca <do_user_call>
    81000162:	60a2                	ld	ra,8(sp)
    81000164:	6402                	ld	s0,0(sp)
    81000166:	0141                	addi	sp,sp,16
    81000168:	8082                	ret

000000008100016a <print_backtrace>:
    8100016a:	1141                	addi	sp,sp,-16
    8100016c:	e406                	sd	ra,8(sp)
    8100016e:	e022                	sd	s0,0(sp)
    81000170:	0800                	addi	s0,sp,16
    81000172:	85aa                	mv	a1,a0
    81000174:	4881                	li	a7,0
    81000176:	4801                	li	a6,0
    81000178:	4781                	li	a5,0
    8100017a:	4701                	li	a4,0
    8100017c:	4681                	li	a3,0
    8100017e:	4601                	li	a2,0
    81000180:	04200513          	li	a0,66
    81000184:	f47ff0ef          	jal	ra,810000ca <do_user_call>
    81000188:	60a2                	ld	ra,8(sp)
    8100018a:	6402                	ld	s0,0(sp)
    8100018c:	0141                	addi	sp,sp,16
    8100018e:	8082                	ret

0000000081000190 <vsnprintf>:
    81000190:	1101                	addi	sp,sp,-32
    81000192:	ec22                	sd	s0,24(sp)
    81000194:	1000                	addi	s0,sp,32
    81000196:	fed43423          	sd	a3,-24(s0)
    8100019a:	4781                	li	a5,0
    8100019c:	4301                	li	t1,0
    8100019e:	4681                	li	a3,0
    810001a0:	a255                	j	81000344 <vsnprintf+0x1b4>
    810001a2:	00178713          	addi	a4,a5,1
    810001a6:	00b77863          	bgeu	a4,a1,810001b6 <vsnprintf+0x26>
    810001aa:	00f50833          	add	a6,a0,a5
    810001ae:	03000893          	li	a7,48
    810001b2:	01180023          	sb	a7,0(a6)
    810001b6:	0789                	addi	a5,a5,2
    810001b8:	00b7f763          	bgeu	a5,a1,810001c6 <vsnprintf+0x36>
    810001bc:	972a                	add	a4,a4,a0
    810001be:	07800813          	li	a6,120
    810001c2:	01070023          	sb	a6,0(a4)
    810001c6:	fe843703          	ld	a4,-24(s0)
    810001ca:	00870813          	addi	a6,a4,8
    810001ce:	ff043423          	sd	a6,-24(s0)
    810001d2:	00073883          	ld	a7,0(a4)
    810001d6:	eaa9                	bnez	a3,81000228 <vsnprintf+0x98>
    810001d8:	469d                	li	a3,7
    810001da:	a035                	j	81000206 <vsnprintf+0x76>
    810001dc:	00030463          	beqz	t1,810001e4 <vsnprintf+0x54>
    810001e0:	869a                	mv	a3,t1
    810001e2:	b7d5                	j	810001c6 <vsnprintf+0x36>
    810001e4:	fe843703          	ld	a4,-24(s0)
    810001e8:	00870693          	addi	a3,a4,8
    810001ec:	fed43423          	sd	a3,-24(s0)
    810001f0:	00072883          	lw	a7,0(a4)
    810001f4:	869a                	mv	a3,t1
    810001f6:	b7c5                	j	810001d6 <vsnprintf+0x46>
    810001f8:	05770713          	addi	a4,a4,87
    810001fc:	97aa                	add	a5,a5,a0
    810001fe:	00e78023          	sb	a4,0(a5)
    81000202:	36fd                	addiw	a3,a3,-1
    81000204:	87c2                	mv	a5,a6
    81000206:	0206c363          	bltz	a3,8100022c <vsnprintf+0x9c>
    8100020a:	0026971b          	slliw	a4,a3,0x2
    8100020e:	40e8d733          	sra	a4,a7,a4
    81000212:	8b3d                	andi	a4,a4,15
    81000214:	00178813          	addi	a6,a5,1
    81000218:	feb875e3          	bgeu	a6,a1,81000202 <vsnprintf+0x72>
    8100021c:	4325                	li	t1,9
    8100021e:	fce34de3          	blt	t1,a4,810001f8 <vsnprintf+0x68>
    81000222:	03070713          	addi	a4,a4,48
    81000226:	bfd9                	j	810001fc <vsnprintf+0x6c>
    81000228:	46bd                	li	a3,15
    8100022a:	bff1                	j	81000206 <vsnprintf+0x76>
    8100022c:	4301                	li	t1,0
    8100022e:	4681                	li	a3,0
    81000230:	aa09                	j	81000342 <vsnprintf+0x1b2>
    81000232:	00030f63          	beqz	t1,81000250 <vsnprintf+0xc0>
    81000236:	fe843703          	ld	a4,-24(s0)
    8100023a:	00870693          	addi	a3,a4,8
    8100023e:	fed43423          	sd	a3,-24(s0)
    81000242:	00073883          	ld	a7,0(a4)
    81000246:	0008ce63          	bltz	a7,81000262 <vsnprintf+0xd2>
    8100024a:	8746                	mv	a4,a7
    8100024c:	4305                	li	t1,1
    8100024e:	a815                	j	81000282 <vsnprintf+0xf2>
    81000250:	fe843703          	ld	a4,-24(s0)
    81000254:	00870693          	addi	a3,a4,8
    81000258:	fed43423          	sd	a3,-24(s0)
    8100025c:	00072883          	lw	a7,0(a4)
    81000260:	b7dd                	j	81000246 <vsnprintf+0xb6>
    81000262:	411008b3          	neg	a7,a7
    81000266:	00178713          	addi	a4,a5,1
    8100026a:	00b77963          	bgeu	a4,a1,8100027c <vsnprintf+0xec>
    8100026e:	97aa                	add	a5,a5,a0
    81000270:	02d00693          	li	a3,45
    81000274:	00d78023          	sb	a3,0(a5)
    81000278:	87ba                	mv	a5,a4
    8100027a:	bfc1                	j	8100024a <vsnprintf+0xba>
    8100027c:	87ba                	mv	a5,a4
    8100027e:	b7f1                	j	8100024a <vsnprintf+0xba>
    81000280:	0305                	addi	t1,t1,1
    81000282:	46a9                	li	a3,10
    81000284:	02d74733          	div	a4,a4,a3
    81000288:	ff65                	bnez	a4,81000280 <vsnprintf+0xf0>
    8100028a:	fff3071b          	addiw	a4,t1,-1
    8100028e:	a029                	j	81000298 <vsnprintf+0x108>
    81000290:	46a9                	li	a3,10
    81000292:	02d8c8b3          	div	a7,a7,a3
    81000296:	377d                	addiw	a4,a4,-1
    81000298:	02074163          	bltz	a4,810002ba <vsnprintf+0x12a>
    8100029c:	00f706b3          	add	a3,a4,a5
    810002a0:	00168813          	addi	a6,a3,1
    810002a4:	feb876e3          	bgeu	a6,a1,81000290 <vsnprintf+0x100>
    810002a8:	4829                	li	a6,10
    810002aa:	0308e833          	rem	a6,a7,a6
    810002ae:	96aa                	add	a3,a3,a0
    810002b0:	0308081b          	addiw	a6,a6,48
    810002b4:	01068023          	sb	a6,0(a3)
    810002b8:	bfe1                	j	81000290 <vsnprintf+0x100>
    810002ba:	979a                	add	a5,a5,t1
    810002bc:	4301                	li	t1,0
    810002be:	4681                	li	a3,0
    810002c0:	a049                	j	81000342 <vsnprintf+0x1b2>
    810002c2:	fe843703          	ld	a4,-24(s0)
    810002c6:	00870693          	addi	a3,a4,8
    810002ca:	fed43423          	sd	a3,-24(s0)
    810002ce:	6318                	ld	a4,0(a4)
    810002d0:	a019                	j	810002d6 <vsnprintf+0x146>
    810002d2:	0705                	addi	a4,a4,1
    810002d4:	87b6                	mv	a5,a3
    810002d6:	00074803          	lbu	a6,0(a4)
    810002da:	00080a63          	beqz	a6,810002ee <vsnprintf+0x15e>
    810002de:	00178693          	addi	a3,a5,1
    810002e2:	feb6f8e3          	bgeu	a3,a1,810002d2 <vsnprintf+0x142>
    810002e6:	97aa                	add	a5,a5,a0
    810002e8:	01078023          	sb	a6,0(a5)
    810002ec:	b7dd                	j	810002d2 <vsnprintf+0x142>
    810002ee:	4301                	li	t1,0
    810002f0:	4681                	li	a3,0
    810002f2:	a881                	j	81000342 <vsnprintf+0x1b2>
    810002f4:	00178713          	addi	a4,a5,1
    810002f8:	04b77063          	bgeu	a4,a1,81000338 <vsnprintf+0x1a8>
    810002fc:	fe843683          	ld	a3,-24(s0)
    81000300:	00868813          	addi	a6,a3,8
    81000304:	ff043423          	sd	a6,-24(s0)
    81000308:	97aa                	add	a5,a5,a0
    8100030a:	0006c683          	lbu	a3,0(a3)
    8100030e:	00d78023          	sb	a3,0(a5)
    81000312:	87ba                	mv	a5,a4
    81000314:	4301                	li	t1,0
    81000316:	4681                	li	a3,0
    81000318:	a02d                	j	81000342 <vsnprintf+0x1b2>
    8100031a:	02500813          	li	a6,37
    8100031e:	03070163          	beq	a4,a6,81000340 <vsnprintf+0x1b0>
    81000322:	00178813          	addi	a6,a5,1
    81000326:	04b87463          	bgeu	a6,a1,8100036e <vsnprintf+0x1de>
    8100032a:	97aa                	add	a5,a5,a0
    8100032c:	00e78023          	sb	a4,0(a5)
    81000330:	87c2                	mv	a5,a6
    81000332:	a801                	j	81000342 <vsnprintf+0x1b2>
    81000334:	8336                	mv	t1,a3
    81000336:	a031                	j	81000342 <vsnprintf+0x1b2>
    81000338:	87ba                	mv	a5,a4
    8100033a:	4301                	li	t1,0
    8100033c:	4681                	li	a3,0
    8100033e:	a011                	j	81000342 <vsnprintf+0x1b2>
    81000340:	4685                	li	a3,1
    81000342:	0605                	addi	a2,a2,1
    81000344:	00064703          	lbu	a4,0(a2)
    81000348:	c70d                	beqz	a4,81000372 <vsnprintf+0x1e2>
    8100034a:	dae1                	beqz	a3,8100031a <vsnprintf+0x18a>
    8100034c:	f9d7071b          	addiw	a4,a4,-99
    81000350:	0ff77893          	zext.b	a7,a4
    81000354:	4855                	li	a6,21
    81000356:	ff1866e3          	bltu	a6,a7,81000342 <vsnprintf+0x1b2>
    8100035a:	00289713          	slli	a4,a7,0x2
    8100035e:	00000817          	auipc	a6,0x0
    81000362:	06680813          	addi	a6,a6,102 # 810003c4 <vsnprintf+0x234>
    81000366:	9742                	add	a4,a4,a6
    81000368:	4318                	lw	a4,0(a4)
    8100036a:	9742                	add	a4,a4,a6
    8100036c:	8702                	jr	a4
    8100036e:	87c2                	mv	a5,a6
    81000370:	bfc9                	j	81000342 <vsnprintf+0x1b2>
    81000372:	00b7fa63          	bgeu	a5,a1,81000386 <vsnprintf+0x1f6>
    81000376:	953e                	add	a0,a0,a5
    81000378:	00050023          	sb	zero,0(a0)
    8100037c:	0007851b          	sext.w	a0,a5
    81000380:	6462                	ld	s0,24(sp)
    81000382:	6105                	addi	sp,sp,32
    81000384:	8082                	ret
    81000386:	d9fd                	beqz	a1,8100037c <vsnprintf+0x1ec>
    81000388:	15fd                	addi	a1,a1,-1
    8100038a:	952e                	add	a0,a0,a1
    8100038c:	00050023          	sb	zero,0(a0)
    81000390:	b7f5                	j	8100037c <vsnprintf+0x1ec>
