
hostfs_root/bin/app_shell：     文件格式 elf64-littleriscv
hostfs_root/bin/app_shell
体系结构：riscv:rv64， 标志 0x00000112：
EXEC_P, HAS_SYMS, D_PAGED
起始地址 0x00000000000100b0

程序头：
    LOAD off    0x0000000000000000 vaddr 0x0000000000010000 paddr 0x0000000000010000 align 2**12
         filesz 0x0000000000000a04 memsz 0x0000000000000a04 flags r-x
    LOAD off    0x0000000000000a08 vaddr 0x0000000000011a08 paddr 0x0000000000011a08 align 2**12
         filesz 0x0000000000000000 memsz 0x0000000000000008 flags rw-

节：
Idx Name          Size      VMA               LMA               File off  Algn
  0 .text         00000846  00000000000100b0  00000000000100b0  000000b0  2**1
                  CONTENTS, ALLOC, LOAD, READONLY, CODE
  1 .rodata       0000010c  00000000000108f8  00000000000108f8  000008f8  2**3
                  CONTENTS, ALLOC, LOAD, READONLY, DATA
  2 .sbss         00000008  0000000000011a08  0000000000011a08  00000a08  2**3
                  ALLOC
  3 .comment      00000012  0000000000000000  0000000000000000  00000a04  2**0
                  CONTENTS, READONLY
  4 .riscv.attributes 00000035  0000000000000000  0000000000000000  00000a16  2**0
                  CONTENTS, READONLY
  5 .debug_aranges 000000c0  0000000000000000  0000000000000000  00000a4b  2**0
                  CONTENTS, READONLY, DEBUGGING, OCTETS
  6 .debug_info   000017aa  0000000000000000  0000000000000000  00000b0b  2**0
                  CONTENTS, READONLY, DEBUGGING, OCTETS
  7 .debug_abbrev 00000551  0000000000000000  0000000000000000  000022b5  2**0
                  CONTENTS, READONLY, DEBUGGING, OCTETS
  8 .debug_line   00001555  0000000000000000  0000000000000000  00002806  2**0
                  CONTENTS, READONLY, DEBUGGING, OCTETS
  9 .debug_frame  00000558  0000000000000000  0000000000000000  00003d60  2**3
                  CONTENTS, READONLY, DEBUGGING, OCTETS
 10 .debug_str    0000030f  0000000000000000  0000000000000000  000042b8  2**0
                  CONTENTS, READONLY, DEBUGGING, OCTETS
 11 .debug_line_str 000001cf  0000000000000000  0000000000000000  000045c7  2**0
                  CONTENTS, READONLY, DEBUGGING, OCTETS
 12 .debug_loclists 00001602  0000000000000000  0000000000000000  00004796  2**0
                  CONTENTS, READONLY, DEBUGGING, OCTETS
 13 .debug_rnglists 000000f5  0000000000000000  0000000000000000  00005d98  2**0
                  CONTENTS, READONLY, DEBUGGING, OCTETS
SYMBOL TABLE:
00000000000100b0 l    d  .text	0000000000000000 .text
00000000000108f8 l    d  .rodata	0000000000000000 .rodata
0000000000011a08 l    d  .sbss	0000000000000000 .sbss
0000000000000000 l    d  .comment	0000000000000000 .comment
0000000000000000 l    d  .riscv.attributes	0000000000000000 .riscv.attributes
0000000000000000 l    d  .debug_aranges	0000000000000000 .debug_aranges
0000000000000000 l    d  .debug_info	0000000000000000 .debug_info
0000000000000000 l    d  .debug_abbrev	0000000000000000 .debug_abbrev
0000000000000000 l    d  .debug_line	0000000000000000 .debug_line
0000000000000000 l    d  .debug_frame	0000000000000000 .debug_frame
0000000000000000 l    d  .debug_str	0000000000000000 .debug_str
0000000000000000 l    d  .debug_line_str	0000000000000000 .debug_line_str
0000000000000000 l    d  .debug_loclists	0000000000000000 .debug_loclists
0000000000000000 l    d  .debug_rnglists	0000000000000000 .debug_rnglists
0000000000000000 l    df *ABS*	0000000000000000 app_shell.c
0000000000000000 l    df *ABS*	0000000000000000 user_lib.c
0000000000000000 l    df *ABS*	0000000000000000 snprintf.c
0000000000000000 l    df *ABS*	0000000000000000 string.c
0000000000011a08 l     O .sbss	0000000000000008 current.0
00000000000108ca g     F .text	000000000000002c safestrcpy
000000000001075c g     F .text	0000000000000012 strcpy
00000000000102b6 g     F .text	0000000000000020 yield
0000000000010254 g     F .text	0000000000000020 naive_malloc
0000000000012204 g       *ABS*	0000000000000000 __global_pointer$
0000000000010274 g     F .text	0000000000000020 naive_free
0000000000010884 g     F .text	0000000000000046 memmove
0000000000010830 g     F .text	0000000000000054 atol
0000000000011a04 g       .rodata	0000000000000000 __SDATA_BEGIN__
00000000000106b6 g     F .text	0000000000000038 memcpy
00000000000104d4 g     F .text	00000000000001e2 vsnprintf
0000000000010408 g     F .text	0000000000000022 mkdir_u
00000000000103c4 g     F .text	0000000000000022 opendir_u
00000000000103e6 g     F .text	0000000000000022 readdir_u
000000000001080c g     F .text	0000000000000024 strcat
000000000001044c g     F .text	0000000000000022 link_u
00000000000102d6 g     F .text	0000000000000022 exec
000000000001035e g     F .text	0000000000000022 lseek_u
00000000000104b2 g     F .text	0000000000000022 wait
0000000000010784 g     F .text	0000000000000088 strtok
000000000001042a g     F .text	0000000000000022 closedir_u
0000000000010294 g     F .text	0000000000000022 fork
0000000000011a10 g       .sbss	0000000000000000 __BSS_END__
000000000001031a g     F .text	0000000000000022 read_u
0000000000011a04 g       .sbss	0000000000000000 __bss_start
00000000000106ee g     F .text	0000000000000044 memset
00000000000100b0 g     F .text	0000000000000122 main
00000000000101d2 g     F .text	000000000000000e do_user_call
00000000000103a2 g     F .text	0000000000000022 disk_stat_u
0000000000010744 g     F .text	0000000000000018 strcmp
000000000001046e g     F .text	0000000000000022 unlink_u
0000000000011a04 g       .rodata	0000000000000000 __DATA_BEGIN__
0000000000011a04 g       .rodata	0000000000000000 _edata
0000000000011a10 g       .sbss	0000000000000000 _end
00000000000101e0 g     F .text	0000000000000052 printu
0000000000010232 g     F .text	0000000000000022 exit
0000000000010380 g     F .text	0000000000000022 stat_u
0000000000010732 g     F .text	0000000000000012 strlen
00000000000102f8 g     F .text	0000000000000022 open
000000000001033c g     F .text	0000000000000022 write_u
000000000001076e g     F .text	0000000000000016 strchr
0000000000010490 g     F .text	0000000000000022 close



Disassembly of section .text:

00000000000100b0 <main>:
 */
#include "user_lib.h"
#include "string.h"
#include "util/types.h"

int main(int argc, char *argv[]) {
   100b0:	7139                	addi	sp,sp,-64
   100b2:	fc06                	sd	ra,56(sp)
   100b4:	f822                	sd	s0,48(sp)
   100b6:	f426                	sd	s1,40(sp)
   100b8:	f04a                	sd	s2,32(sp)
   100ba:	ec4e                	sd	s3,24(sp)
   100bc:	e852                	sd	s4,16(sp)
   100be:	0080                	addi	s0,sp,64
  printu("\n======== Shell Start ========\n\n");
   100c0:	00001517          	auipc	a0,0x1
   100c4:	83850513          	addi	a0,a0,-1992 # 108f8 <safestrcpy+0x2e>
   100c8:	118000ef          	jal	ra,101e0 <printu>
  int fd;
  int MAXBUF = 1024;
  char buf[MAXBUF];
   100cc:	c0010113          	addi	sp,sp,-1024
   100d0:	8a0a                	mv	s4,sp
  char *token;
  char delim[3] = " \n";
   100d2:	6785                	lui	a5,0x1
   100d4:	a2078793          	addi	a5,a5,-1504 # a20 <main-0xf690>
   100d8:	fcf41423          	sh	a5,-56(s0)
   100dc:	fc040523          	sb	zero,-54(s0)
  fd = open("/shellrc", O_RDONLY);
   100e0:	4581                	li	a1,0
   100e2:	00001517          	auipc	a0,0x1
   100e6:	83e50513          	addi	a0,a0,-1986 # 10920 <safestrcpy+0x56>
   100ea:	20e000ef          	jal	ra,102f8 <open>
   100ee:	84aa                	mv	s1,a0

  read_u(fd, buf, MAXBUF);
   100f0:	40000613          	li	a2,1024
   100f4:	858a                	mv	a1,sp
   100f6:	224000ef          	jal	ra,1031a <read_u>
  close(fd);
   100fa:	8526                	mv	a0,s1
   100fc:	394000ef          	jal	ra,10490 <close>
  char *command = naive_malloc();
   10100:	154000ef          	jal	ra,10254 <naive_malloc>
   10104:	84aa                	mv	s1,a0
  char *para = naive_malloc();
   10106:	14e000ef          	jal	ra,10254 <naive_malloc>
   1010a:	892a                	mv	s2,a0
  int start = 0;
   1010c:	4981                	li	s3,0
   1010e:	a005                	j	1012e <main+0x7e>
    if(!start) {
      token = strtok(buf, delim);
      start = 1;
    }
    else 
      token = strtok(NULL, delim);
   10110:	fc840593          	addi	a1,s0,-56
   10114:	4501                	li	a0,0
   10116:	66e000ef          	jal	ra,10784 <strtok>
   1011a:	85aa                	mv	a1,a0
   1011c:	a015                	j	10140 <main+0x90>
      if (ret == -1)
      printu("exec failed!\n");
    }
    else
    {
      wait(pid);
   1011e:	394000ef          	jal	ra,104b2 <wait>
      printu("==========Command End============\n\n");
   10122:	00001517          	auipc	a0,0x1
   10126:	86650513          	addi	a0,a0,-1946 # 10988 <safestrcpy+0xbe>
   1012a:	0b6000ef          	jal	ra,101e0 <printu>
    if(!start) {
   1012e:	fe0991e3          	bnez	s3,10110 <main+0x60>
      token = strtok(buf, delim);
   10132:	fc840593          	addi	a1,s0,-56
   10136:	8552                	mv	a0,s4
   10138:	64c000ef          	jal	ra,10784 <strtok>
   1013c:	85aa                	mv	a1,a0
      start = 1;
   1013e:	4985                	li	s3,1
    strcpy(command, token);
   10140:	8526                	mv	a0,s1
   10142:	61a000ef          	jal	ra,1075c <strcpy>
    token = strtok(NULL, delim);
   10146:	fc840593          	addi	a1,s0,-56
   1014a:	4501                	li	a0,0
   1014c:	638000ef          	jal	ra,10784 <strtok>
   10150:	85aa                	mv	a1,a0
    strcpy(para, token);
   10152:	854a                	mv	a0,s2
   10154:	608000ef          	jal	ra,1075c <strcpy>
    if(strcmp(command, "END") == 0 && strcmp(para, "END") == 0)
   10158:	00000597          	auipc	a1,0x0
   1015c:	7d858593          	addi	a1,a1,2008 # 10930 <safestrcpy+0x66>
   10160:	8526                	mv	a0,s1
   10162:	5e2000ef          	jal	ra,10744 <strcmp>
   10166:	e909                	bnez	a0,10178 <main+0xc8>
   10168:	00000597          	auipc	a1,0x0
   1016c:	7c858593          	addi	a1,a1,1992 # 10930 <safestrcpy+0x66>
   10170:	854a                	mv	a0,s2
   10172:	5d2000ef          	jal	ra,10744 <strcmp>
   10176:	c121                	beqz	a0,101b6 <main+0x106>
    printu("Next command: %s %s\n\n", command, para);
   10178:	864a                	mv	a2,s2
   1017a:	85a6                	mv	a1,s1
   1017c:	00000517          	auipc	a0,0x0
   10180:	7bc50513          	addi	a0,a0,1980 # 10938 <safestrcpy+0x6e>
   10184:	05c000ef          	jal	ra,101e0 <printu>
    printu("==========Command Start============\n\n");
   10188:	00000517          	auipc	a0,0x0
   1018c:	7c850513          	addi	a0,a0,1992 # 10950 <safestrcpy+0x86>
   10190:	050000ef          	jal	ra,101e0 <printu>
    int pid = fork();
   10194:	100000ef          	jal	ra,10294 <fork>
    if(pid == 0) {
   10198:	f159                	bnez	a0,1011e <main+0x6e>
      int ret = exec(command, para);
   1019a:	85ca                	mv	a1,s2
   1019c:	8526                	mv	a0,s1
   1019e:	138000ef          	jal	ra,102d6 <exec>
      if (ret == -1)
   101a2:	57fd                	li	a5,-1
   101a4:	f8f515e3          	bne	a0,a5,1012e <main+0x7e>
      printu("exec failed!\n");
   101a8:	00000517          	auipc	a0,0x0
   101ac:	7d050513          	addi	a0,a0,2000 # 10978 <safestrcpy+0xae>
   101b0:	030000ef          	jal	ra,101e0 <printu>
   101b4:	bfad                	j	1012e <main+0x7e>
    }
  }
  exit(0);
   101b6:	4501                	li	a0,0
   101b8:	07a000ef          	jal	ra,10232 <exit>
  return 0;
}
   101bc:	4501                	li	a0,0
   101be:	fc040113          	addi	sp,s0,-64
   101c2:	70e2                	ld	ra,56(sp)
   101c4:	7442                	ld	s0,48(sp)
   101c6:	74a2                	ld	s1,40(sp)
   101c8:	7902                	ld	s2,32(sp)
   101ca:	69e2                	ld	s3,24(sp)
   101cc:	6a42                	ld	s4,16(sp)
   101ce:	6121                	addi	sp,sp,64
   101d0:	8082                	ret

00000000000101d2 <do_user_call>:
#include "util/types.h"
#include "util/snprintf.h"
#include "kernel/syscall.h"

uint64 do_user_call(uint64 sysnum, uint64 a1, uint64 a2, uint64 a3, uint64 a4, uint64 a5, uint64 a6,
                 uint64 a7) {
   101d2:	1141                	addi	sp,sp,-16
  int ret;

  // before invoking the syscall, arguments of do_user_call are already loaded into the argument
  // registers (a0-a7) of our (emulated) risc-v machine.
  asm volatile(
   101d4:	00000073          	ecall
   101d8:	c62a                	sw	a0,12(sp)
      : "=m"(ret)
      :
      : "memory");

  return ret;
}
   101da:	4532                	lw	a0,12(sp)
   101dc:	0141                	addi	sp,sp,16
   101de:	8082                	ret

00000000000101e0 <printu>:

//
// printu() supports user/lab1_1_helloworld.c
//
int printu(const char* s, ...) {
   101e0:	710d                	addi	sp,sp,-352
   101e2:	ee06                	sd	ra,280(sp)
   101e4:	f62e                	sd	a1,296(sp)
   101e6:	fa32                	sd	a2,304(sp)
   101e8:	fe36                	sd	a3,312(sp)
   101ea:	e2ba                	sd	a4,320(sp)
   101ec:	e6be                	sd	a5,328(sp)
   101ee:	eac2                	sd	a6,336(sp)
   101f0:	eec6                	sd	a7,344(sp)
  va_list vl;
  va_start(vl, s);
   101f2:	1234                	addi	a3,sp,296
   101f4:	e636                	sd	a3,264(sp)

  char out[256];  // fixed buffer size.
  int res = vsnprintf(out, sizeof(out), s, vl);
   101f6:	862a                	mv	a2,a0
   101f8:	10000593          	li	a1,256
   101fc:	0028                	addi	a0,sp,8
   101fe:	2d6000ef          	jal	ra,104d4 <vsnprintf>
  va_end(vl);
  const char* buf = out;
  size_t n = res < sizeof(out) ? res : sizeof(out);
   10202:	0005071b          	sext.w	a4,a0
   10206:	0ff00793          	li	a5,255
   1020a:	02e7e163          	bltu	a5,a4,1022c <printu+0x4c>
   1020e:	862a                	mv	a2,a0

  // make a syscall to implement the required functionality.
  return do_user_call(SYS_user_print, (uint64)buf, n, 0, 0, 0, 0, 0);
   10210:	4881                	li	a7,0
   10212:	4801                	li	a6,0
   10214:	4781                	li	a5,0
   10216:	4701                	li	a4,0
   10218:	4681                	li	a3,0
   1021a:	002c                	addi	a1,sp,8
   1021c:	04000513          	li	a0,64
   10220:	fb3ff0ef          	jal	ra,101d2 <do_user_call>
}
   10224:	2501                	sext.w	a0,a0
   10226:	60f2                	ld	ra,280(sp)
   10228:	6135                	addi	sp,sp,352
   1022a:	8082                	ret
  size_t n = res < sizeof(out) ? res : sizeof(out);
   1022c:	10000613          	li	a2,256
   10230:	b7c5                	j	10210 <printu+0x30>

0000000000010232 <exit>:

//
// applications need to call exit to quit execution.
//
int exit(int code) {
   10232:	1141                	addi	sp,sp,-16
   10234:	e406                	sd	ra,8(sp)
   10236:	85aa                	mv	a1,a0
  return do_user_call(SYS_user_exit, code, 0, 0, 0, 0, 0, 0); 
   10238:	4881                	li	a7,0
   1023a:	4801                	li	a6,0
   1023c:	4781                	li	a5,0
   1023e:	4701                	li	a4,0
   10240:	4681                	li	a3,0
   10242:	4601                	li	a2,0
   10244:	04100513          	li	a0,65
   10248:	f8bff0ef          	jal	ra,101d2 <do_user_call>
}
   1024c:	2501                	sext.w	a0,a0
   1024e:	60a2                	ld	ra,8(sp)
   10250:	0141                	addi	sp,sp,16
   10252:	8082                	ret

0000000000010254 <naive_malloc>:

//
// lib call to naive_malloc
//
void* naive_malloc() {
   10254:	1141                	addi	sp,sp,-16
   10256:	e406                	sd	ra,8(sp)
  return (void*)do_user_call(SYS_user_allocate_page, 0, 0, 0, 0, 0, 0, 0);
   10258:	4881                	li	a7,0
   1025a:	4801                	li	a6,0
   1025c:	4781                	li	a5,0
   1025e:	4701                	li	a4,0
   10260:	4681                	li	a3,0
   10262:	4601                	li	a2,0
   10264:	4581                	li	a1,0
   10266:	04200513          	li	a0,66
   1026a:	f69ff0ef          	jal	ra,101d2 <do_user_call>
}
   1026e:	60a2                	ld	ra,8(sp)
   10270:	0141                	addi	sp,sp,16
   10272:	8082                	ret

0000000000010274 <naive_free>:

//
// lib call to naive_free
//
void naive_free(void* va) {
   10274:	1141                	addi	sp,sp,-16
   10276:	e406                	sd	ra,8(sp)
   10278:	85aa                	mv	a1,a0
  do_user_call(SYS_user_free_page, (uint64)va, 0, 0, 0, 0, 0, 0);
   1027a:	4881                	li	a7,0
   1027c:	4801                	li	a6,0
   1027e:	4781                	li	a5,0
   10280:	4701                	li	a4,0
   10282:	4681                	li	a3,0
   10284:	4601                	li	a2,0
   10286:	04300513          	li	a0,67
   1028a:	f49ff0ef          	jal	ra,101d2 <do_user_call>
}
   1028e:	60a2                	ld	ra,8(sp)
   10290:	0141                	addi	sp,sp,16
   10292:	8082                	ret

0000000000010294 <fork>:

//
// lib call to naive_fork
int fork() {
   10294:	1141                	addi	sp,sp,-16
   10296:	e406                	sd	ra,8(sp)
  return do_user_call(SYS_user_fork, 0, 0, 0, 0, 0, 0, 0);
   10298:	4881                	li	a7,0
   1029a:	4801                	li	a6,0
   1029c:	4781                	li	a5,0
   1029e:	4701                	li	a4,0
   102a0:	4681                	li	a3,0
   102a2:	4601                	li	a2,0
   102a4:	4581                	li	a1,0
   102a6:	04400513          	li	a0,68
   102aa:	f29ff0ef          	jal	ra,101d2 <do_user_call>
}
   102ae:	2501                	sext.w	a0,a0
   102b0:	60a2                	ld	ra,8(sp)
   102b2:	0141                	addi	sp,sp,16
   102b4:	8082                	ret

00000000000102b6 <yield>:

//
// lib call to yield
//
void yield() {
   102b6:	1141                	addi	sp,sp,-16
   102b8:	e406                	sd	ra,8(sp)
  do_user_call(SYS_user_yield, 0, 0, 0, 0, 0, 0, 0);
   102ba:	4881                	li	a7,0
   102bc:	4801                	li	a6,0
   102be:	4781                	li	a5,0
   102c0:	4701                	li	a4,0
   102c2:	4681                	li	a3,0
   102c4:	4601                	li	a2,0
   102c6:	4581                	li	a1,0
   102c8:	04500513          	li	a0,69
   102cc:	f07ff0ef          	jal	ra,101d2 <do_user_call>
}
   102d0:	60a2                	ld	ra,8(sp)
   102d2:	0141                	addi	sp,sp,16
   102d4:	8082                	ret

00000000000102d6 <exec>:

int exec(const char* path, char* para)
{
   102d6:	1141                	addi	sp,sp,-16
   102d8:	e406                	sd	ra,8(sp)
   102da:	862e                	mv	a2,a1
  return do_user_call(SYS_user_exec, (uint64)path, (uint64)para, 0, 0, 0, 0, 0);
   102dc:	4881                	li	a7,0
   102de:	4801                	li	a6,0
   102e0:	4781                	li	a5,0
   102e2:	4701                	li	a4,0
   102e4:	4681                	li	a3,0
   102e6:	85aa                	mv	a1,a0
   102e8:	05e00513          	li	a0,94
   102ec:	ee7ff0ef          	jal	ra,101d2 <do_user_call>
}
   102f0:	2501                	sext.w	a0,a0
   102f2:	60a2                	ld	ra,8(sp)
   102f4:	0141                	addi	sp,sp,16
   102f6:	8082                	ret

00000000000102f8 <open>:

//
// lib call to open
//
int open(const char *pathname, int flags) {
   102f8:	1141                	addi	sp,sp,-16
   102fa:	e406                	sd	ra,8(sp)
   102fc:	862e                	mv	a2,a1
  return do_user_call(SYS_user_open, (uint64)pathname, flags, 0, 0, 0, 0, 0);
   102fe:	4881                	li	a7,0
   10300:	4801                	li	a6,0
   10302:	4781                	li	a5,0
   10304:	4701                	li	a4,0
   10306:	4681                	li	a3,0
   10308:	85aa                	mv	a1,a0
   1030a:	05100513          	li	a0,81
   1030e:	ec5ff0ef          	jal	ra,101d2 <do_user_call>
}
   10312:	2501                	sext.w	a0,a0
   10314:	60a2                	ld	ra,8(sp)
   10316:	0141                	addi	sp,sp,16
   10318:	8082                	ret

000000000001031a <read_u>:

//
// lib call to read
//
int read_u(int fd, void * buf, uint64 count){
   1031a:	1141                	addi	sp,sp,-16
   1031c:	e406                	sd	ra,8(sp)
   1031e:	86b2                	mv	a3,a2
  return do_user_call(SYS_user_read, fd, (uint64)buf, count, 0, 0, 0, 0);
   10320:	4881                	li	a7,0
   10322:	4801                	li	a6,0
   10324:	4781                	li	a5,0
   10326:	4701                	li	a4,0
   10328:	862e                	mv	a2,a1
   1032a:	85aa                	mv	a1,a0
   1032c:	05200513          	li	a0,82
   10330:	ea3ff0ef          	jal	ra,101d2 <do_user_call>
}
   10334:	2501                	sext.w	a0,a0
   10336:	60a2                	ld	ra,8(sp)
   10338:	0141                	addi	sp,sp,16
   1033a:	8082                	ret

000000000001033c <write_u>:

//
// lib call to write
//
int write_u(int fd, void *buf, uint64 count) {
   1033c:	1141                	addi	sp,sp,-16
   1033e:	e406                	sd	ra,8(sp)
   10340:	86b2                	mv	a3,a2
  return do_user_call(SYS_user_write, fd, (uint64)buf, count, 0, 0, 0, 0);
   10342:	4881                	li	a7,0
   10344:	4801                	li	a6,0
   10346:	4781                	li	a5,0
   10348:	4701                	li	a4,0
   1034a:	862e                	mv	a2,a1
   1034c:	85aa                	mv	a1,a0
   1034e:	05300513          	li	a0,83
   10352:	e81ff0ef          	jal	ra,101d2 <do_user_call>
}
   10356:	2501                	sext.w	a0,a0
   10358:	60a2                	ld	ra,8(sp)
   1035a:	0141                	addi	sp,sp,16
   1035c:	8082                	ret

000000000001035e <lseek_u>:

//
// lib call to seek
// 
int lseek_u(int fd, int offset, int whence) {
   1035e:	1141                	addi	sp,sp,-16
   10360:	e406                	sd	ra,8(sp)
   10362:	86b2                	mv	a3,a2
  return do_user_call(SYS_user_lseek, fd, offset, whence, 0, 0, 0, 0);
   10364:	4881                	li	a7,0
   10366:	4801                	li	a6,0
   10368:	4781                	li	a5,0
   1036a:	4701                	li	a4,0
   1036c:	862e                	mv	a2,a1
   1036e:	85aa                	mv	a1,a0
   10370:	05400513          	li	a0,84
   10374:	e5fff0ef          	jal	ra,101d2 <do_user_call>
}
   10378:	2501                	sext.w	a0,a0
   1037a:	60a2                	ld	ra,8(sp)
   1037c:	0141                	addi	sp,sp,16
   1037e:	8082                	ret

0000000000010380 <stat_u>:

//
// lib call to read file information
//
int stat_u(int fd, struct istat *istat) {
   10380:	1141                	addi	sp,sp,-16
   10382:	e406                	sd	ra,8(sp)
   10384:	862e                	mv	a2,a1
  return do_user_call(SYS_user_stat, fd, (uint64)istat, 0, 0, 0, 0, 0);
   10386:	4881                	li	a7,0
   10388:	4801                	li	a6,0
   1038a:	4781                	li	a5,0
   1038c:	4701                	li	a4,0
   1038e:	4681                	li	a3,0
   10390:	85aa                	mv	a1,a0
   10392:	05500513          	li	a0,85
   10396:	e3dff0ef          	jal	ra,101d2 <do_user_call>
}
   1039a:	2501                	sext.w	a0,a0
   1039c:	60a2                	ld	ra,8(sp)
   1039e:	0141                	addi	sp,sp,16
   103a0:	8082                	ret

00000000000103a2 <disk_stat_u>:

//
// lib call to read file information from disk
//
int disk_stat_u(int fd, struct istat *istat) {
   103a2:	1141                	addi	sp,sp,-16
   103a4:	e406                	sd	ra,8(sp)
   103a6:	862e                	mv	a2,a1
  return do_user_call(SYS_user_disk_stat, fd, (uint64)istat, 0, 0, 0, 0, 0);
   103a8:	4881                	li	a7,0
   103aa:	4801                	li	a6,0
   103ac:	4781                	li	a5,0
   103ae:	4701                	li	a4,0
   103b0:	4681                	li	a3,0
   103b2:	85aa                	mv	a1,a0
   103b4:	05600513          	li	a0,86
   103b8:	e1bff0ef          	jal	ra,101d2 <do_user_call>
}
   103bc:	2501                	sext.w	a0,a0
   103be:	60a2                	ld	ra,8(sp)
   103c0:	0141                	addi	sp,sp,16
   103c2:	8082                	ret

00000000000103c4 <opendir_u>:

//
// lib call to open dir
//
int opendir_u(const char *dirname) {
   103c4:	1141                	addi	sp,sp,-16
   103c6:	e406                	sd	ra,8(sp)
   103c8:	85aa                	mv	a1,a0
  return do_user_call(SYS_user_opendir, (uint64)dirname, 0, 0, 0, 0, 0, 0);
   103ca:	4881                	li	a7,0
   103cc:	4801                	li	a6,0
   103ce:	4781                	li	a5,0
   103d0:	4701                	li	a4,0
   103d2:	4681                	li	a3,0
   103d4:	4601                	li	a2,0
   103d6:	05800513          	li	a0,88
   103da:	df9ff0ef          	jal	ra,101d2 <do_user_call>
}
   103de:	2501                	sext.w	a0,a0
   103e0:	60a2                	ld	ra,8(sp)
   103e2:	0141                	addi	sp,sp,16
   103e4:	8082                	ret

00000000000103e6 <readdir_u>:

//
// lib call to read dir
//
int readdir_u(int fd, struct dir *dir) {
   103e6:	1141                	addi	sp,sp,-16
   103e8:	e406                	sd	ra,8(sp)
   103ea:	862e                	mv	a2,a1
  return do_user_call(SYS_user_readdir, fd, (uint64)dir, 0, 0, 0, 0, 0);
   103ec:	4881                	li	a7,0
   103ee:	4801                	li	a6,0
   103f0:	4781                	li	a5,0
   103f2:	4701                	li	a4,0
   103f4:	4681                	li	a3,0
   103f6:	85aa                	mv	a1,a0
   103f8:	05900513          	li	a0,89
   103fc:	dd7ff0ef          	jal	ra,101d2 <do_user_call>
}
   10400:	2501                	sext.w	a0,a0
   10402:	60a2                	ld	ra,8(sp)
   10404:	0141                	addi	sp,sp,16
   10406:	8082                	ret

0000000000010408 <mkdir_u>:

//
// lib call to make dir
//
int mkdir_u(const char *pathname) {
   10408:	1141                	addi	sp,sp,-16
   1040a:	e406                	sd	ra,8(sp)
   1040c:	85aa                	mv	a1,a0
  return do_user_call(SYS_user_mkdir, (uint64)pathname, 0, 0, 0, 0, 0, 0);
   1040e:	4881                	li	a7,0
   10410:	4801                	li	a6,0
   10412:	4781                	li	a5,0
   10414:	4701                	li	a4,0
   10416:	4681                	li	a3,0
   10418:	4601                	li	a2,0
   1041a:	05a00513          	li	a0,90
   1041e:	db5ff0ef          	jal	ra,101d2 <do_user_call>
}
   10422:	2501                	sext.w	a0,a0
   10424:	60a2                	ld	ra,8(sp)
   10426:	0141                	addi	sp,sp,16
   10428:	8082                	ret

000000000001042a <closedir_u>:

//
// lib call to close dir
//
int closedir_u(int fd) {
   1042a:	1141                	addi	sp,sp,-16
   1042c:	e406                	sd	ra,8(sp)
   1042e:	85aa                	mv	a1,a0
  return do_user_call(SYS_user_closedir, fd, 0, 0, 0, 0, 0, 0);
   10430:	4881                	li	a7,0
   10432:	4801                	li	a6,0
   10434:	4781                	li	a5,0
   10436:	4701                	li	a4,0
   10438:	4681                	li	a3,0
   1043a:	4601                	li	a2,0
   1043c:	05b00513          	li	a0,91
   10440:	d93ff0ef          	jal	ra,101d2 <do_user_call>
} 
   10444:	2501                	sext.w	a0,a0
   10446:	60a2                	ld	ra,8(sp)
   10448:	0141                	addi	sp,sp,16
   1044a:	8082                	ret

000000000001044c <link_u>:

//
// lib call to link
//
int link_u(const char *fn1, const char *fn2){
   1044c:	1141                	addi	sp,sp,-16
   1044e:	e406                	sd	ra,8(sp)
   10450:	862e                	mv	a2,a1
  return do_user_call(SYS_user_link, (uint64)fn1, (uint64)fn2, 0, 0, 0, 0, 0);
   10452:	4881                	li	a7,0
   10454:	4801                	li	a6,0
   10456:	4781                	li	a5,0
   10458:	4701                	li	a4,0
   1045a:	4681                	li	a3,0
   1045c:	85aa                	mv	a1,a0
   1045e:	05c00513          	li	a0,92
   10462:	d71ff0ef          	jal	ra,101d2 <do_user_call>
}
   10466:	2501                	sext.w	a0,a0
   10468:	60a2                	ld	ra,8(sp)
   1046a:	0141                	addi	sp,sp,16
   1046c:	8082                	ret

000000000001046e <unlink_u>:

//
// lib call to unlink
//
int unlink_u(const char *fn){
   1046e:	1141                	addi	sp,sp,-16
   10470:	e406                	sd	ra,8(sp)
   10472:	85aa                	mv	a1,a0
  return do_user_call(SYS_user_unlink, (uint64)fn, 0, 0, 0, 0, 0, 0);
   10474:	4881                	li	a7,0
   10476:	4801                	li	a6,0
   10478:	4781                	li	a5,0
   1047a:	4701                	li	a4,0
   1047c:	4681                	li	a3,0
   1047e:	4601                	li	a2,0
   10480:	05d00513          	li	a0,93
   10484:	d4fff0ef          	jal	ra,101d2 <do_user_call>
}
   10488:	2501                	sext.w	a0,a0
   1048a:	60a2                	ld	ra,8(sp)
   1048c:	0141                	addi	sp,sp,16
   1048e:	8082                	ret

0000000000010490 <close>:

//
// lib call to close
//
int close(int fd) {
   10490:	1141                	addi	sp,sp,-16
   10492:	e406                	sd	ra,8(sp)
   10494:	85aa                	mv	a1,a0
  return do_user_call(SYS_user_close, fd, 0, 0, 0, 0, 0, 0);
   10496:	4881                	li	a7,0
   10498:	4801                	li	a6,0
   1049a:	4781                	li	a5,0
   1049c:	4701                	li	a4,0
   1049e:	4681                	li	a3,0
   104a0:	4601                	li	a2,0
   104a2:	05700513          	li	a0,87
   104a6:	d2dff0ef          	jal	ra,101d2 <do_user_call>
}
   104aa:	2501                	sext.w	a0,a0
   104ac:	60a2                	ld	ra,8(sp)
   104ae:	0141                	addi	sp,sp,16
   104b0:	8082                	ret

00000000000104b2 <wait>:

//
// lib call to wait
//
int wait(int pid) {
   104b2:	1141                	addi	sp,sp,-16
   104b4:	e406                	sd	ra,8(sp)
   104b6:	85aa                	mv	a1,a0
  return do_user_call(SYS_user_wait, pid, 0, 0, 0, 0, 0, 0);
   104b8:	4881                	li	a7,0
   104ba:	4801                	li	a6,0
   104bc:	4781                	li	a5,0
   104be:	4701                	li	a4,0
   104c0:	4681                	li	a3,0
   104c2:	4601                	li	a2,0
   104c4:	04600513          	li	a0,70
   104c8:	d0bff0ef          	jal	ra,101d2 <do_user_call>
   104cc:	2501                	sext.w	a0,a0
   104ce:	60a2                	ld	ra,8(sp)
   104d0:	0141                	addi	sp,sp,16
   104d2:	8082                	ret

00000000000104d4 <vsnprintf>:
//#include <stdarg.h>
//#include <stdbool.h>

#include "util/snprintf.h"

int32 vsnprintf(char* out, size_t n, const char* s, va_list vl) {
   104d4:	1141                	addi	sp,sp,-16
   104d6:	e436                	sd	a3,8(sp)
  bool format = FALSE;
  bool longarg = FALSE;
  size_t pos = 0;
   104d8:	4781                	li	a5,0
  bool longarg = FALSE;
   104da:	4301                	li	t1,0
  bool format = FALSE;
   104dc:	4681                	li	a3,0

  for (; *s; s++) {
   104de:	a271                	j	1066a <vsnprintf+0x196>
        case 'l':
          longarg = TRUE;
          break;
        case 'p':
          longarg = TRUE;
          if (++pos < n) out[pos - 1] = '0';
   104e0:	00178713          	addi	a4,a5,1
   104e4:	00b77863          	bgeu	a4,a1,104f4 <vsnprintf+0x20>
   104e8:	00f50833          	add	a6,a0,a5
   104ec:	03000893          	li	a7,48
   104f0:	01180023          	sb	a7,0(a6)
          if (++pos < n) out[pos - 1] = 'x';
   104f4:	0789                	addi	a5,a5,2
   104f6:	00b7f763          	bgeu	a5,a1,10504 <vsnprintf+0x30>
   104fa:	972a                	add	a4,a4,a0
   104fc:	07800813          	li	a6,120
   10500:	01070023          	sb	a6,0(a4)
        case 'x': {
          long num = longarg ? va_arg(vl, long) : va_arg(vl, int);
   10504:	6722                	ld	a4,8(sp)
   10506:	00870813          	addi	a6,a4,8
   1050a:	e442                	sd	a6,8(sp)
   1050c:	00073883          	ld	a7,0(a4)
          for (int i = 2 * (longarg ? sizeof(long) : sizeof(int)) - 1; i >= 0; i--) {
   10510:	e6b9                	bnez	a3,1055e <vsnprintf+0x8a>
   10512:	469d                	li	a3,7
   10514:	a025                	j	1053c <vsnprintf+0x68>
          long num = longarg ? va_arg(vl, long) : va_arg(vl, int);
   10516:	00030463          	beqz	t1,1051e <vsnprintf+0x4a>
   1051a:	869a                	mv	a3,t1
   1051c:	b7e5                	j	10504 <vsnprintf+0x30>
   1051e:	6722                	ld	a4,8(sp)
   10520:	00870693          	addi	a3,a4,8
   10524:	e436                	sd	a3,8(sp)
   10526:	00072883          	lw	a7,0(a4)
   1052a:	869a                	mv	a3,t1
   1052c:	b7d5                	j	10510 <vsnprintf+0x3c>
            int d = (num >> (4 * i)) & 0xF;
            if (++pos < n) out[pos - 1] = (d < 10 ? '0' + d : 'a' + d - 10);
   1052e:	05770713          	addi	a4,a4,87
   10532:	97aa                	add	a5,a5,a0
   10534:	00e78023          	sb	a4,0(a5)
          for (int i = 2 * (longarg ? sizeof(long) : sizeof(int)) - 1; i >= 0; i--) {
   10538:	36fd                	addiw	a3,a3,-1
            if (++pos < n) out[pos - 1] = (d < 10 ? '0' + d : 'a' + d - 10);
   1053a:	87c2                	mv	a5,a6
          for (int i = 2 * (longarg ? sizeof(long) : sizeof(int)) - 1; i >= 0; i--) {
   1053c:	0206c363          	bltz	a3,10562 <vsnprintf+0x8e>
            int d = (num >> (4 * i)) & 0xF;
   10540:	0026971b          	slliw	a4,a3,0x2
   10544:	40e8d733          	sra	a4,a7,a4
   10548:	8b3d                	andi	a4,a4,15
            if (++pos < n) out[pos - 1] = (d < 10 ? '0' + d : 'a' + d - 10);
   1054a:	00178813          	addi	a6,a5,1
   1054e:	feb875e3          	bgeu	a6,a1,10538 <vsnprintf+0x64>
   10552:	4325                	li	t1,9
   10554:	fce34de3          	blt	t1,a4,1052e <vsnprintf+0x5a>
   10558:	03070713          	addi	a4,a4,48
   1055c:	bfd9                	j	10532 <vsnprintf+0x5e>
          for (int i = 2 * (longarg ? sizeof(long) : sizeof(int)) - 1; i >= 0; i--) {
   1055e:	46bd                	li	a3,15
   10560:	bff1                	j	1053c <vsnprintf+0x68>
          }
          longarg = FALSE;
   10562:	4301                	li	t1,0
          format = FALSE;
   10564:	4681                	li	a3,0
   10566:	a209                	j	10668 <vsnprintf+0x194>
          break;
        }
        case 'd': {
          long num = longarg ? va_arg(vl, long) : va_arg(vl, int);
   10568:	00030d63          	beqz	t1,10582 <vsnprintf+0xae>
   1056c:	6722                	ld	a4,8(sp)
   1056e:	00870693          	addi	a3,a4,8
   10572:	e436                	sd	a3,8(sp)
   10574:	00073883          	ld	a7,0(a4)
          if (num < 0) {
   10578:	0008cc63          	bltz	a7,10590 <vsnprintf+0xbc>
            num = -num;
            if (++pos < n) out[pos - 1] = '-';
          }
          long digits = 1;
          for (long nn = num; nn /= 10; digits++)
   1057c:	8746                	mv	a4,a7
          long digits = 1;
   1057e:	4305                	li	t1,1
          for (long nn = num; nn /= 10; digits++)
   10580:	a805                	j	105b0 <vsnprintf+0xdc>
          long num = longarg ? va_arg(vl, long) : va_arg(vl, int);
   10582:	6722                	ld	a4,8(sp)
   10584:	00870693          	addi	a3,a4,8
   10588:	e436                	sd	a3,8(sp)
   1058a:	00072883          	lw	a7,0(a4)
   1058e:	b7ed                	j	10578 <vsnprintf+0xa4>
            num = -num;
   10590:	411008b3          	neg	a7,a7
            if (++pos < n) out[pos - 1] = '-';
   10594:	00178713          	addi	a4,a5,1
   10598:	00b77963          	bgeu	a4,a1,105aa <vsnprintf+0xd6>
   1059c:	97aa                	add	a5,a5,a0
   1059e:	02d00693          	li	a3,45
   105a2:	00d78023          	sb	a3,0(a5)
   105a6:	87ba                	mv	a5,a4
   105a8:	bfd1                	j	1057c <vsnprintf+0xa8>
   105aa:	87ba                	mv	a5,a4
   105ac:	bfc1                	j	1057c <vsnprintf+0xa8>
          for (long nn = num; nn /= 10; digits++)
   105ae:	0305                	addi	t1,t1,1
   105b0:	46a9                	li	a3,10
   105b2:	02d74733          	div	a4,a4,a3
   105b6:	ff65                	bnez	a4,105ae <vsnprintf+0xda>
            ;
          for (int i = digits - 1; i >= 0; i--) {
   105b8:	fff3071b          	addiw	a4,t1,-1
   105bc:	a029                	j	105c6 <vsnprintf+0xf2>
            if (pos + i + 1 < n) out[pos + i] = '0' + (num % 10);
            num /= 10;
   105be:	46a9                	li	a3,10
   105c0:	02d8c8b3          	div	a7,a7,a3
          for (int i = digits - 1; i >= 0; i--) {
   105c4:	377d                	addiw	a4,a4,-1
   105c6:	02074163          	bltz	a4,105e8 <vsnprintf+0x114>
            if (pos + i + 1 < n) out[pos + i] = '0' + (num % 10);
   105ca:	00f706b3          	add	a3,a4,a5
   105ce:	00168813          	addi	a6,a3,1
   105d2:	feb876e3          	bgeu	a6,a1,105be <vsnprintf+0xea>
   105d6:	4829                	li	a6,10
   105d8:	0308e833          	rem	a6,a7,a6
   105dc:	96aa                	add	a3,a3,a0
   105de:	0308081b          	addiw	a6,a6,48
   105e2:	01068023          	sb	a6,0(a3)
   105e6:	bfe1                	j	105be <vsnprintf+0xea>
          }
          pos += digits;
   105e8:	979a                	add	a5,a5,t1
          longarg = FALSE;
   105ea:	4301                	li	t1,0
          format = FALSE;
   105ec:	4681                	li	a3,0
          break;
   105ee:	a8ad                	j	10668 <vsnprintf+0x194>
        }
        case 's': {
          const char* s2 = va_arg(vl, const char*);
   105f0:	6722                	ld	a4,8(sp)
   105f2:	00870693          	addi	a3,a4,8
   105f6:	e436                	sd	a3,8(sp)
   105f8:	6318                	ld	a4,0(a4)
          while (*s2) {
   105fa:	a019                	j	10600 <vsnprintf+0x12c>
            if (++pos < n) out[pos - 1] = *s2;
            s2++;
   105fc:	0705                	addi	a4,a4,1
            if (++pos < n) out[pos - 1] = *s2;
   105fe:	87b6                	mv	a5,a3
          while (*s2) {
   10600:	00074803          	lbu	a6,0(a4)
   10604:	00080a63          	beqz	a6,10618 <vsnprintf+0x144>
            if (++pos < n) out[pos - 1] = *s2;
   10608:	00178693          	addi	a3,a5,1
   1060c:	feb6f8e3          	bgeu	a3,a1,105fc <vsnprintf+0x128>
   10610:	97aa                	add	a5,a5,a0
   10612:	01078023          	sb	a6,0(a5)
   10616:	b7dd                	j	105fc <vsnprintf+0x128>
          }
          longarg = FALSE;
   10618:	4301                	li	t1,0
          format = FALSE;
   1061a:	4681                	li	a3,0
   1061c:	a0b1                	j	10668 <vsnprintf+0x194>
          break;
        }
        case 'c': {
          if (++pos < n) out[pos - 1] = (char)va_arg(vl, int);
   1061e:	00178713          	addi	a4,a5,1
   10622:	02b77e63          	bgeu	a4,a1,1065e <vsnprintf+0x18a>
   10626:	66a2                	ld	a3,8(sp)
   10628:	00868813          	addi	a6,a3,8
   1062c:	e442                	sd	a6,8(sp)
   1062e:	97aa                	add	a5,a5,a0
   10630:	0006c683          	lbu	a3,0(a3)
   10634:	00d78023          	sb	a3,0(a5)
   10638:	87ba                	mv	a5,a4
          longarg = FALSE;
   1063a:	4301                	li	t1,0
          format = FALSE;
   1063c:	4681                	li	a3,0
   1063e:	a02d                	j	10668 <vsnprintf+0x194>
          break;
        }
        default:
          break;
      }
    } else if (*s == '%')
   10640:	02500813          	li	a6,37
   10644:	03070163          	beq	a4,a6,10666 <vsnprintf+0x192>
      format = TRUE;
    else if (++pos < n)
   10648:	00178813          	addi	a6,a5,1
   1064c:	04b87463          	bgeu	a6,a1,10694 <vsnprintf+0x1c0>
      out[pos - 1] = *s;
   10650:	97aa                	add	a5,a5,a0
   10652:	00e78023          	sb	a4,0(a5)
    else if (++pos < n)
   10656:	87c2                	mv	a5,a6
   10658:	a801                	j	10668 <vsnprintf+0x194>
          longarg = TRUE;
   1065a:	8336                	mv	t1,a3
   1065c:	a031                	j	10668 <vsnprintf+0x194>
          if (++pos < n) out[pos - 1] = (char)va_arg(vl, int);
   1065e:	87ba                	mv	a5,a4
          longarg = FALSE;
   10660:	4301                	li	t1,0
          format = FALSE;
   10662:	4681                	li	a3,0
   10664:	a011                	j	10668 <vsnprintf+0x194>
      format = TRUE;
   10666:	4685                	li	a3,1
  for (; *s; s++) {
   10668:	0605                	addi	a2,a2,1
   1066a:	00064703          	lbu	a4,0(a2)
   1066e:	c70d                	beqz	a4,10698 <vsnprintf+0x1c4>
    if (format) {
   10670:	dae1                	beqz	a3,10640 <vsnprintf+0x16c>
      switch (*s) {
   10672:	f9d7071b          	addiw	a4,a4,-99
   10676:	0ff77893          	zext.b	a7,a4
   1067a:	4855                	li	a6,21
   1067c:	ff1866e3          	bltu	a6,a7,10668 <vsnprintf+0x194>
   10680:	00289713          	slli	a4,a7,0x2
   10684:	00000817          	auipc	a6,0x0
   10688:	32880813          	addi	a6,a6,808 # 109ac <safestrcpy+0xe2>
   1068c:	9742                	add	a4,a4,a6
   1068e:	4318                	lw	a4,0(a4)
   10690:	9742                	add	a4,a4,a6
   10692:	8702                	jr	a4
    else if (++pos < n)
   10694:	87c2                	mv	a5,a6
   10696:	bfc9                	j	10668 <vsnprintf+0x194>
  }
  if (pos < n)
   10698:	00b7f963          	bgeu	a5,a1,106aa <vsnprintf+0x1d6>
    out[pos] = 0;
   1069c:	953e                	add	a0,a0,a5
   1069e:	00050023          	sb	zero,0(a0)
  else if (n)
    out[n - 1] = 0;
  return pos;
}
   106a2:	0007851b          	sext.w	a0,a5
   106a6:	0141                	addi	sp,sp,16
   106a8:	8082                	ret
  else if (n)
   106aa:	dde5                	beqz	a1,106a2 <vsnprintf+0x1ce>
    out[n - 1] = 0;
   106ac:	15fd                	addi	a1,a1,-1
   106ae:	952e                	add	a0,a0,a1
   106b0:	00050023          	sb	zero,0(a0)
   106b4:	b7fd                	j	106a2 <vsnprintf+0x1ce>

00000000000106b6 <memcpy>:

void* memcpy(void* dest, const void* src, size_t len) {
  const char* s = src;
  char* d = dest;

  if ((((uintptr_t)dest | (uintptr_t)src) & (sizeof(uintptr_t) - 1)) == 0) {
   106b6:	00a5e7b3          	or	a5,a1,a0
   106ba:	8b9d                	andi	a5,a5,7
   106bc:	c399                	beqz	a5,106c2 <memcpy+0xc>
  char* d = dest;
   106be:	87aa                	mv	a5,a0
   106c0:	a015                	j	106e4 <memcpy+0x2e>
   106c2:	87aa                	mv	a5,a0
    while ((void*)d < (dest + len - (sizeof(uintptr_t) - 1))) {
   106c4:	ff960713          	addi	a4,a2,-7
   106c8:	972a                	add	a4,a4,a0
   106ca:	00e7fd63          	bgeu	a5,a4,106e4 <memcpy+0x2e>
      *(uintptr_t*)d = *(const uintptr_t*)s;
   106ce:	6198                	ld	a4,0(a1)
   106d0:	e398                	sd	a4,0(a5)
      d += sizeof(uintptr_t);
   106d2:	07a1                	addi	a5,a5,8
      s += sizeof(uintptr_t);
   106d4:	05a1                	addi	a1,a1,8
   106d6:	b7fd                	j	106c4 <memcpy+0xe>
    }
  }

  while (d < (char*)(dest + len)) *d++ = *s++;
   106d8:	0005c703          	lbu	a4,0(a1)
   106dc:	00e78023          	sb	a4,0(a5)
   106e0:	0785                	addi	a5,a5,1
   106e2:	0585                	addi	a1,a1,1
   106e4:	00c50733          	add	a4,a0,a2
   106e8:	fee7e8e3          	bltu	a5,a4,106d8 <memcpy+0x22>

  return dest;
}
   106ec:	8082                	ret

00000000000106ee <memset>:

void* memset(void* dest, int byte, size_t len) {
  if ((((uintptr_t)dest | len) & (sizeof(uintptr_t) - 1)) == 0) {
   106ee:	00c567b3          	or	a5,a0,a2
   106f2:	8b9d                	andi	a5,a5,7
   106f4:	ef8d                	bnez	a5,1072e <memset+0x40>
    uintptr_t word = byte & 0xFF;
   106f6:	0ff5f593          	zext.b	a1,a1
    word |= word << 8;
   106fa:	00859713          	slli	a4,a1,0x8
   106fe:	8f4d                	or	a4,a4,a1
    word |= word << 16;
   10700:	01071793          	slli	a5,a4,0x10
   10704:	8fd9                	or	a5,a5,a4
    word |= word << 16 << 16;
   10706:	02079693          	slli	a3,a5,0x20
   1070a:	8edd                	or	a3,a3,a5

    uintptr_t* d = dest;
   1070c:	87aa                	mv	a5,a0
    while (d < (uintptr_t*)(dest + len)) *d++ = word;
   1070e:	a019                	j	10714 <memset+0x26>
   10710:	e394                	sd	a3,0(a5)
   10712:	07a1                	addi	a5,a5,8
   10714:	00c50733          	add	a4,a0,a2
   10718:	fee7ece3          	bltu	a5,a4,10710 <memset+0x22>
   1071c:	8082                	ret
  } else {
    char* d = dest;
    while (d < (char*)(dest + len)) *d++ = byte;
   1071e:	00b78023          	sb	a1,0(a5)
   10722:	0785                	addi	a5,a5,1
   10724:	00c50733          	add	a4,a0,a2
   10728:	fee7ebe3          	bltu	a5,a4,1071e <memset+0x30>
  }
  return dest;
}
   1072c:	8082                	ret
    char* d = dest;
   1072e:	87aa                	mv	a5,a0
   10730:	bfd5                	j	10724 <memset+0x36>

0000000000010732 <strlen>:

size_t strlen(const char* s) {
  const char* p = s;
   10732:	87aa                	mv	a5,a0
  while (*p) p++;
   10734:	a011                	j	10738 <strlen+0x6>
   10736:	0785                	addi	a5,a5,1
   10738:	0007c703          	lbu	a4,0(a5)
   1073c:	ff6d                	bnez	a4,10736 <strlen+0x4>
  return p - s;
}
   1073e:	40a78533          	sub	a0,a5,a0
   10742:	8082                	ret

0000000000010744 <strcmp>:

int strcmp(const char* s1, const char* s2) {
  unsigned char c1, c2;

  do {
    c1 = *s1++;
   10744:	00054703          	lbu	a4,0(a0)
   10748:	0505                	addi	a0,a0,1
    c2 = *s2++;
   1074a:	0005c783          	lbu	a5,0(a1)
   1074e:	0585                	addi	a1,a1,1
  } while (c1 != 0 && c1 == c2);
   10750:	c319                	beqz	a4,10756 <strcmp+0x12>
   10752:	fef709e3          	beq	a4,a5,10744 <strcmp>

  return c1 - c2;
}
   10756:	40f7053b          	subw	a0,a4,a5
   1075a:	8082                	ret

000000000001075c <strcpy>:

char* strcpy(char* dest, const char* src) {
  char* d = dest;
   1075c:	86aa                	mv	a3,a0
  while ((*d++ = *src++))
   1075e:	0005c703          	lbu	a4,0(a1)
   10762:	0585                	addi	a1,a1,1
   10764:	00e68023          	sb	a4,0(a3)
   10768:	0685                	addi	a3,a3,1
   1076a:	fb75                	bnez	a4,1075e <strcpy+0x2>
    ;
  return dest;
}
   1076c:	8082                	ret

000000000001076e <strchr>:

char *strchr(const char *p, int ch)
{
	char c;
	c = ch;
   1076e:	0ff5f593          	zext.b	a1,a1
   10772:	a011                	j	10776 <strchr+0x8>
	for (;; ++p) {
   10774:	0505                	addi	a0,a0,1
		if (*p == c)
   10776:	00054783          	lbu	a5,0(a0)
   1077a:	00b78463          	beq	a5,a1,10782 <strchr+0x14>
			return ((char *)p);
		if (*p == '\0')
   1077e:	fbfd                	bnez	a5,10774 <strchr+0x6>
			return (NULL);
   10780:	4501                	li	a0,0
	}
}
   10782:	8082                	ret

0000000000010784 <strtok>:

char* strtok(char* str, const char* delim) {
   10784:	7179                	addi	sp,sp,-48
   10786:	f406                	sd	ra,40(sp)
   10788:	f022                	sd	s0,32(sp)
   1078a:	ec26                	sd	s1,24(sp)
   1078c:	e84a                	sd	s2,16(sp)
   1078e:	e44e                	sd	s3,8(sp)
   10790:	89ae                	mv	s3,a1
  static char* current;
  if (str != NULL) current = str;
   10792:	c509                	beqz	a0,1079c <strtok+0x18>
   10794:	00001797          	auipc	a5,0x1
   10798:	26a7ba23          	sd	a0,628(a5) # 11a08 <current.0>
  if (current == NULL) return NULL;
   1079c:	00001417          	auipc	s0,0x1
   107a0:	26c43403          	ld	s0,620(s0) # 11a08 <current.0>
   107a4:	e019                	bnez	s0,107aa <strtok+0x26>
   107a6:	a0b1                	j	107f2 <strtok+0x6e>

  char* start = current;
  while (*start != '\0' && strchr(delim, *start) != NULL) start++;
   107a8:	0405                	addi	s0,s0,1
   107aa:	00044483          	lbu	s1,0(s0)
   107ae:	c491                	beqz	s1,107ba <strtok+0x36>
   107b0:	85a6                	mv	a1,s1
   107b2:	854e                	mv	a0,s3
   107b4:	fbbff0ef          	jal	ra,1076e <strchr>
   107b8:	f965                	bnez	a0,107a8 <strtok+0x24>

  if (*start == '\0') {
   107ba:	cc89                	beqz	s1,107d4 <strtok+0x50>
    current = NULL;
    return current;
  }

  char* end = start;
   107bc:	84a2                	mv	s1,s0
  while (*end != '\0' && strchr(delim, *end) == NULL) end++;
   107be:	0004c903          	lbu	s2,0(s1)
   107c2:	00090f63          	beqz	s2,107e0 <strtok+0x5c>
   107c6:	85ca                	mv	a1,s2
   107c8:	854e                	mv	a0,s3
   107ca:	fa5ff0ef          	jal	ra,1076e <strchr>
   107ce:	e909                	bnez	a0,107e0 <strtok+0x5c>
   107d0:	0485                	addi	s1,s1,1
   107d2:	b7f5                	j	107be <strtok+0x3a>
    current = NULL;
   107d4:	00001797          	auipc	a5,0x1
   107d8:	2207ba23          	sd	zero,564(a5) # 11a08 <current.0>
    return current;
   107dc:	4401                	li	s0,0
   107de:	a811                	j	107f2 <strtok+0x6e>

  if (*end != '\0') {
   107e0:	02090163          	beqz	s2,10802 <strtok+0x7e>
    *end = '\0';
   107e4:	00048023          	sb	zero,0(s1)
    current = end + 1;
   107e8:	0485                	addi	s1,s1,1
   107ea:	00001797          	auipc	a5,0x1
   107ee:	2097bf23          	sd	s1,542(a5) # 11a08 <current.0>
  } else
    current = NULL;
  return start;
}
   107f2:	8522                	mv	a0,s0
   107f4:	70a2                	ld	ra,40(sp)
   107f6:	7402                	ld	s0,32(sp)
   107f8:	64e2                	ld	s1,24(sp)
   107fa:	6942                	ld	s2,16(sp)
   107fc:	69a2                	ld	s3,8(sp)
   107fe:	6145                	addi	sp,sp,48
   10800:	8082                	ret
    current = NULL;
   10802:	00001797          	auipc	a5,0x1
   10806:	2007b323          	sd	zero,518(a5) # 11a08 <current.0>
   1080a:	b7e5                	j	107f2 <strtok+0x6e>

000000000001080c <strcat>:

char *strcat(char *dst, const char *src) {
   1080c:	1101                	addi	sp,sp,-32
   1080e:	ec06                	sd	ra,24(sp)
   10810:	e822                	sd	s0,16(sp)
   10812:	e426                	sd	s1,8(sp)
   10814:	842a                	mv	s0,a0
   10816:	84ae                	mv	s1,a1
  strcpy(dst + strlen(dst), src);
   10818:	f1bff0ef          	jal	ra,10732 <strlen>
   1081c:	85a6                	mv	a1,s1
   1081e:	9522                	add	a0,a0,s0
   10820:	f3dff0ef          	jal	ra,1075c <strcpy>
  return dst;
}
   10824:	8522                	mv	a0,s0
   10826:	60e2                	ld	ra,24(sp)
   10828:	6442                	ld	s0,16(sp)
   1082a:	64a2                	ld	s1,8(sp)
   1082c:	6105                	addi	sp,sp,32
   1082e:	8082                	ret

0000000000010830 <atol>:

long atol(const char* str) {
   10830:	87aa                	mv	a5,a0
  long res = 0;
  int sign = 0;

  while (*str == ' ') str++;
   10832:	a011                	j	10836 <atol+0x6>
   10834:	0785                	addi	a5,a5,1
   10836:	0007c703          	lbu	a4,0(a5)
   1083a:	02000693          	li	a3,32
   1083e:	fed70be3          	beq	a4,a3,10834 <atol+0x4>

  if (*str == '-' || *str == '+') {
   10842:	02d00693          	li	a3,45
   10846:	00d70863          	beq	a4,a3,10856 <atol+0x26>
   1084a:	02b00693          	li	a3,43
   1084e:	00d70463          	beq	a4,a3,10856 <atol+0x26>
  int sign = 0;
   10852:	4601                	li	a2,0
   10854:	a031                	j	10860 <atol+0x30>
    sign = *str == '-';
   10856:	fd370713          	addi	a4,a4,-45
   1085a:	00173613          	seqz	a2,a4
    str++;
   1085e:	0785                	addi	a5,a5,1
  int sign = 0;
   10860:	4501                	li	a0,0
   10862:	a811                	j	10876 <atol+0x46>
  }

  while (*str) {
    res *= 10;
   10864:	00251713          	slli	a4,a0,0x2
   10868:	972a                	add	a4,a4,a0
   1086a:	0706                	slli	a4,a4,0x1
    res += *str++ - '0';
   1086c:	0785                	addi	a5,a5,1
   1086e:	fd06869b          	addiw	a3,a3,-48
   10872:	00e68533          	add	a0,a3,a4
  while (*str) {
   10876:	0007c683          	lbu	a3,0(a5)
   1087a:	f6ed                	bnez	a3,10864 <atol+0x34>
  }

  return sign ? -res : res;
   1087c:	c219                	beqz	a2,10882 <atol+0x52>
   1087e:	40a00533          	neg	a0,a0
}
   10882:	8082                	ret

0000000000010884 <memmove>:
  const char* s;
  char* d;

  s = src;
  d = dst;
  if (s < d && s + n > d) {
   10884:	02a5ff63          	bgeu	a1,a0,108c2 <memmove+0x3e>
   10888:	00c587b3          	add	a5,a1,a2
   1088c:	02f57d63          	bgeu	a0,a5,108c6 <memmove+0x42>
    s += n;
    d += n;
   10890:	00c50733          	add	a4,a0,a2
    while (n-- > 0) *--d = *--s;
   10894:	a801                	j	108a4 <memmove+0x20>
   10896:	17fd                	addi	a5,a5,-1
   10898:	177d                	addi	a4,a4,-1
   1089a:	0007c603          	lbu	a2,0(a5)
   1089e:	00c70023          	sb	a2,0(a4)
   108a2:	8636                	mv	a2,a3
   108a4:	fff60693          	addi	a3,a2,-1
   108a8:	f67d                	bnez	a2,10896 <memmove+0x12>
   108aa:	8082                	ret
  } else
    while (n-- > 0) *d++ = *s++;
   108ac:	0005c683          	lbu	a3,0(a1)
   108b0:	00d78023          	sb	a3,0(a5)
   108b4:	0785                	addi	a5,a5,1
   108b6:	0585                	addi	a1,a1,1
   108b8:	863a                	mv	a2,a4
   108ba:	fff60713          	addi	a4,a2,-1
   108be:	f67d                	bnez	a2,108ac <memmove+0x28>

  return dst;
}
   108c0:	8082                	ret
   108c2:	87aa                	mv	a5,a0
   108c4:	bfdd                	j	108ba <memmove+0x36>
   108c6:	87aa                	mv	a5,a0
   108c8:	bfcd                	j	108ba <memmove+0x36>

00000000000108ca <safestrcpy>:
// Like strncpy but guaranteed to NUL-terminate.
char* safestrcpy(char* s, const char* t, int n) {
  char* os;

  os = s;
  if (n <= 0) return os;
   108ca:	02c05563          	blez	a2,108f4 <safestrcpy+0x2a>
   108ce:	87aa                	mv	a5,a0
   108d0:	a019                	j	108d6 <safestrcpy+0xc>
  while (--n > 0 && (*s++ = *t++) != 0)
   108d2:	85c2                	mv	a1,a6
   108d4:	87b6                	mv	a5,a3
   108d6:	367d                	addiw	a2,a2,-1
   108d8:	00c05c63          	blez	a2,108f0 <safestrcpy+0x26>
   108dc:	00158813          	addi	a6,a1,1
   108e0:	00178693          	addi	a3,a5,1
   108e4:	0005c703          	lbu	a4,0(a1)
   108e8:	00e78023          	sb	a4,0(a5)
   108ec:	f37d                	bnez	a4,108d2 <safestrcpy+0x8>
   108ee:	87b6                	mv	a5,a3
    ;
  *s = 0;
   108f0:	00078023          	sb	zero,0(a5)
  return os;
}
   108f4:	8082                	ret

Disassembly of section .rodata:

00000000000108f8 <__DATA_BEGIN__-0x110c>:
   108f8:	3d0a                	fld	fs10,160(sp)
   108fa:	3d3d                	addiw	s10,s10,-17
   108fc:	3d3d                	addiw	s10,s10,-17
   108fe:	3d3d                	addiw	s10,s10,-17
   10900:	203d                	0x203d
   10902:	6c656853          	0x6c656853
   10906:	206c                	fld	fa1,192(s0)
   10908:	72617453          	0x72617453
   1090c:	2074                	fld	fa3,192(s0)
   1090e:	3d3d                	addiw	s10,s10,-17
   10910:	3d3d                	addiw	s10,s10,-17
   10912:	3d3d                	addiw	s10,s10,-17
   10914:	3d3d                	addiw	s10,s10,-17
   10916:	0a0a                	slli	s4,s4,0x2
	...
   10920:	6568732f          	0x6568732f
   10924:	6c6c                	ld	a1,216(s0)
   10926:	6372                	ld	t1,280(sp)
	...
   10930:	4e45                	li	t3,17
   10932:	0044                	addi	s1,sp,4
   10934:	0000                	unimp
   10936:	0000                	unimp
   10938:	654e                	ld	a0,208(sp)
   1093a:	7478                	ld	a4,232(s0)
   1093c:	6320                	ld	s0,64(a4)
   1093e:	616d6d6f          	jal	s10,e6f54 <__global_pointer$+0xd4d50>
   10942:	646e                	ld	s0,216(sp)
   10944:	203a                	fld	ft0,392(sp)
   10946:	7325                	lui	t1,0xfffe9
   10948:	2520                	fld	fs0,72(a0)
   1094a:	000a0a73          	0xa0a73
   1094e:	0000                	unimp
   10950:	3d3d                	addiw	s10,s10,-17
   10952:	3d3d                	addiw	s10,s10,-17
   10954:	3d3d                	addiw	s10,s10,-17
   10956:	3d3d                	addiw	s10,s10,-17
   10958:	3d3d                	addiw	s10,s10,-17
   1095a:	6d6d6f43          	0x6d6d6f43
   1095e:	6e61                	lui	t3,0x18
   10960:	2064                	fld	fs1,192(s0)
   10962:	72617453          	0x72617453
   10966:	3d74                	fld	fa3,248(a0)
   10968:	3d3d                	addiw	s10,s10,-17
   1096a:	3d3d                	addiw	s10,s10,-17
   1096c:	3d3d                	addiw	s10,s10,-17
   1096e:	3d3d                	addiw	s10,s10,-17
   10970:	3d3d                	addiw	s10,s10,-17
   10972:	0a3d                	addi	s4,s4,15
   10974:	000a                	c.slli	zero,0x2
   10976:	0000                	unimp
   10978:	7865                	lui	a6,0xffff9
   1097a:	6365                	lui	t1,0x19
   1097c:	6620                	ld	s0,72(a2)
   1097e:	6961                	lui	s2,0x18
   10980:	656c                	ld	a1,200(a0)
   10982:	2164                	fld	fs1,192(a0)
   10984:	000a                	c.slli	zero,0x2
   10986:	0000                	unimp
   10988:	3d3d                	addiw	s10,s10,-17
   1098a:	3d3d                	addiw	s10,s10,-17
   1098c:	3d3d                	addiw	s10,s10,-17
   1098e:	3d3d                	addiw	s10,s10,-17
   10990:	3d3d                	addiw	s10,s10,-17
   10992:	6d6d6f43          	0x6d6d6f43
   10996:	6e61                	lui	t3,0x18
   10998:	2064                	fld	fs1,192(s0)
   1099a:	6e45                	lui	t3,0x11
   1099c:	3d64                	fld	fs1,248(a0)
   1099e:	3d3d                	addiw	s10,s10,-17
   109a0:	3d3d                	addiw	s10,s10,-17
   109a2:	3d3d                	addiw	s10,s10,-17
   109a4:	3d3d                	addiw	s10,s10,-17
   109a6:	3d3d                	addiw	s10,s10,-17
   109a8:	0a3d                	addi	s4,s4,15
   109aa:	000a                	c.slli	zero,0x2
   109ac:	fc72                	sd	t3,56(sp)
   109ae:	ffff                	0xffff
   109b0:	fbbc                	sd	a5,112(a5)
   109b2:	ffff                	0xffff
   109b4:	fcbc                	sd	a5,120(s1)
   109b6:	ffff                	0xffff
   109b8:	fcbc                	sd	a5,120(s1)
   109ba:	ffff                	0xffff
   109bc:	fcbc                	sd	a5,120(s1)
   109be:	ffff                	0xffff
   109c0:	fcbc                	sd	a5,120(s1)
   109c2:	ffff                	0xffff
   109c4:	fcbc                	sd	a5,120(s1)
   109c6:	ffff                	0xffff
   109c8:	fcbc                	sd	a5,120(s1)
   109ca:	ffff                	0xffff
   109cc:	fcbc                	sd	a5,120(s1)
   109ce:	ffff                	0xffff
   109d0:	fcae                	sd	a1,120(sp)
   109d2:	ffff                	0xffff
   109d4:	fcbc                	sd	a5,120(s1)
   109d6:	ffff                	0xffff
   109d8:	fcbc                	sd	a5,120(s1)
   109da:	ffff                	0xffff
   109dc:	fcbc                	sd	a5,120(s1)
   109de:	ffff                	0xffff
   109e0:	fb34                	sd	a3,112(a4)
   109e2:	ffff                	0xffff
   109e4:	fcbc                	sd	a5,120(s1)
   109e6:	ffff                	0xffff
   109e8:	fcbc                	sd	a5,120(s1)
   109ea:	ffff                	0xffff
   109ec:	fc44                	sd	s1,184(s0)
   109ee:	ffff                	0xffff
   109f0:	fcbc                	sd	a5,120(s1)
   109f2:	ffff                	0xffff
   109f4:	fcbc                	sd	a5,120(s1)
   109f6:	ffff                	0xffff
   109f8:	fcbc                	sd	a5,120(s1)
   109fa:	ffff                	0xffff
   109fc:	fcbc                	sd	a5,120(s1)
   109fe:	ffff                	0xffff
   10a00:	fb6a                	sd	s10,432(sp)
   10a02:	ffff                	0xffff

Disassembly of section .sbss:

0000000000011a08 <current.0>:
	...

Disassembly of section .comment:

0000000000000000 <.comment>:
   0:	3a434347          	fmsub.d	ft6,ft6,ft4,ft7,rmm
   4:	2820                	fld	fs0,80(s0)
   6:	29554e47          	fmsub.s	ft8,fa0,fs5,ft5,rmm
   a:	3120                	fld	fs0,96(a0)
   c:	2e31                	addiw	t3,t3,12
   e:	2e31                	addiw	t3,t3,12
  10:	0030                	addi	a2,sp,8

Disassembly of section .riscv.attributes:

0000000000000000 <.riscv.attributes>:
   0:	3441                	addiw	s0,s0,-16
   2:	0000                	unimp
   4:	7200                	ld	s0,32(a2)
   6:	7369                	lui	t1,0xffffa
   8:	01007663          	bgeu	zero,a6,14 <main-0x1009c>
   c:	002a                	c.slli	zero,0xa
   e:	0000                	unimp
  10:	1004                	addi	s1,sp,32
  12:	7205                	lui	tp,0xfffe1
  14:	3676                	fld	fa2,376(sp)
  16:	6934                	ld	a3,80(a0)
  18:	7032                	0x7032
  1a:	5f30                	lw	a2,120(a4)
  1c:	326d                	addiw	tp,tp,-5
  1e:	3070                	fld	fa2,224(s0)
  20:	615f 7032 5f30      	0x5f307032615f
  26:	3266                	fld	ft4,120(sp)
  28:	3070                	fld	fa2,224(s0)
  2a:	645f 7032 5f30      	0x5f307032645f
  30:	30703263          	0x30703263
	...

Disassembly of section .debug_aranges:

0000000000000000 <.debug_aranges>:
   0:	002c                	addi	a1,sp,8
   2:	0000                	unimp
   4:	0002                	c.slli64	zero
   6:	0000                	unimp
   8:	0000                	unimp
   a:	0008                	0x8
   c:	0000                	unimp
   e:	0000                	unimp
  10:	00b0                	addi	a2,sp,72
  12:	0001                	nop
  14:	0000                	unimp
  16:	0000                	unimp
  18:	0122                	slli	sp,sp,0x8
	...
  2e:	0000                	unimp
  30:	002c                	addi	a1,sp,8
  32:	0000                	unimp
  34:	0002                	c.slli64	zero
  36:	00000513          	li	a0,0
  3a:	0008                	0x8
  3c:	0000                	unimp
  3e:	0000                	unimp
  40:	01d2                	slli	gp,gp,0x14
  42:	0001                	nop
  44:	0000                	unimp
  46:	0000                	unimp
  48:	0302                	c.slli64	t1
	...
  5e:	0000                	unimp
  60:	002c                	addi	a1,sp,8
  62:	0000                	unimp
  64:	0002                	c.slli64	zero
  66:	109f 0000 0008      	0x80000109f
  6c:	0000                	unimp
  6e:	0000                	unimp
  70:	04d4                	addi	a3,sp,580
  72:	0001                	nop
  74:	0000                	unimp
  76:	0000                	unimp
  78:	01e2                	slli	gp,gp,0x18
	...
  8e:	0000                	unimp
  90:	002c                	addi	a1,sp,8
  92:	0000                	unimp
  94:	0002                	c.slli64	zero
  96:	12c5                	addi	t0,t0,-15
  98:	0000                	unimp
  9a:	0008                	0x8
  9c:	0000                	unimp
  9e:	0000                	unimp
  a0:	06b6                	slli	a3,a3,0xd
  a2:	0001                	nop
  a4:	0000                	unimp
  a6:	0000                	unimp
  a8:	0240                	addi	s0,sp,260
	...

Disassembly of section .debug_info:

0000000000000000 <.debug_info>:
       0:	0000050f          	0x50f
       4:	0005                	c.nop	1
       6:	0801                	addi	a6,a6,0
       8:	0000                	unimp
       a:	0000                	unimp
       c:	a60e                	fsd	ft3,264(sp)
       e:	0000                	unimp
      10:	0c00                	addi	s0,sp,528
      12:	001c                	0x1c
      14:	0000                	unimp
      16:	0000                	unimp
      18:	0000                	unimp
      1a:	00b0                	addi	a2,sp,72
      1c:	0001                	nop
      1e:	0000                	unimp
      20:	0000                	unimp
      22:	0122                	slli	sp,sp,0x8
	...
      2c:	0000                	unimp
      2e:	0104                	addi	s1,sp,128
      30:	2a08                	fld	fa0,16(a2)
      32:	0000                	unimp
      34:	0400                	addi	s0,sp,512
      36:	0702                	c.slli64	a4
      38:	0045                	c.nop	17
      3a:	0000                	unimp
      3c:	0404                	addi	s1,sp,512
      3e:	00009407          	0x9407
      42:	0f00                	addi	s0,sp,912
      44:	0000014b          	fnmsub.s	ft2,ft0,ft0,ft0,rne
      48:	0705                	addi	a4,a4,1
      4a:	4f1c                	lw	a5,24(a4)
      4c:	0000                	unimp
      4e:	0400                	addi	s0,sp,512
      50:	0708                	addi	a0,sp,896
      52:	008a                	slli	ra,ra,0x2
      54:	0000                	unimp
      56:	0104                	addi	s1,sp,128
      58:	2c06                	fld	fs8,64(sp)
      5a:	0000                	unimp
      5c:	0400                	addi	s0,sp,512
      5e:	0502                	c.slli64	a0
      60:	0065                	c.nop	25
      62:	0000                	unimp
      64:	0410                	addi	a2,sp,512
      66:	6905                	lui	s2,0x1
      68:	746e                	ld	s0,248(sp)
      6a:	0400                	addi	s0,sp,512
      6c:	0508                	addi	a0,sp,640
      6e:	0000                	unimp
      70:	0000                	unimp
      72:	0804                	addi	s1,sp,16
      74:	0505                	addi	a0,a0,1
      76:	0000                	unimp
      78:	0400                	addi	s0,sp,512
      7a:	0708                	addi	a0,sp,896
      7c:	0000008f          	0x8f
      80:	0104                	addi	s1,sp,128
      82:	3308                	fld	fa0,32(a4)
      84:	0000                	unimp
      86:	1100                	addi	s0,sp,160
      88:	0080                	addi	s0,sp,64
      8a:	0000                	unimp
      8c:	0812                	slli	a6,a6,0x4
      8e:	8009                	srli	s0,s0,0x2
      90:	0000                	unimp
      92:	0a00                	addi	s0,sp,272
      94:	008e                	slli	ra,ra,0x3
      96:	0000                	unimp
      98:	8e09                	sub	a2,a2,a0
      9a:	0000                	unimp
      9c:	0900                	addi	s0,sp,144
      9e:	00000087          	0x87
      a2:	9d0a                	add	s10,s10,sp
      a4:	0000                	unimp
      a6:	0500                	addi	s0,sp,640
      a8:	015c                	addi	a5,sp,132
      aa:	0000                	unimp
      ac:	0b02                	c.slli64	s6
      ae:	6405                	lui	s0,0x1
      b0:	0000                	unimp
      b2:	bd00                	fsd	fs0,56(a0)
      b4:	0000                	unimp
      b6:	0200                	addi	s0,sp,256
      b8:	0064                	addi	s1,sp,12
      ba:	0000                	unimp
      bc:	0500                	addi	s0,sp,640
      be:	0000006f          	j	be <main-0xfff2>
      c2:	2502                	fld	fa0,0(sp)
      c4:	6405                	lui	s0,0x1
      c6:	0000                	unimp
      c8:	d300                	sw	s0,32(a4)
      ca:	0000                	unimp
      cc:	0200                	addi	s0,sp,256
      ce:	0064                	addi	s1,sp,12
      d0:	0000                	unimp
      d2:	0500                	addi	s0,sp,640
      d4:	0079                	c.nop	30
      d6:	0000                	unimp
      d8:	1002                	c.slli	zero,0x20
      da:	6405                	lui	s0,0x1
      dc:	0000                	unimp
      de:	ee00                	sd	s0,24(a2)
      e0:	0000                	unimp
      e2:	0200                	addi	s0,sp,256
      e4:	009d                	addi	ra,ra,7
      e6:	0000                	unimp
      e8:	8e02                	jr	t3
      ea:	0000                	unimp
      ec:	0000                	unimp
      ee:	00007e13          	andi	t3,zero,0
      f2:	0400                	addi	s0,sp,512
      f4:	095d                	addi	s2,s2,23
      f6:	0064                	addi	s1,sp,12
      f8:	0000                	unimp
      fa:	5e05                	li	t3,-31
      fc:	0000                	unimp
      fe:	0300                	addi	s0,sp,384
     100:	0624                	addi	s1,sp,776
     102:	0064                	addi	s1,sp,12
     104:	0000                	unimp
     106:	0115                	addi	sp,sp,5
     108:	0000                	unimp
     10a:	9d02                	jalr	s10
     10c:	0000                	unimp
     10e:	0200                	addi	s0,sp,256
     110:	009d                	addi	ra,ra,7
     112:	0000                	unimp
     114:	0500                	addi	s0,sp,640
     116:	02e4                	addi	s1,sp,332
     118:	0000                	unimp
     11a:	8e082603          	lw	a2,-1824(a6) # ffffffffffff88e0 <__global_pointer$+0xfffffffffffe66dc>
     11e:	0000                	unimp
     120:	3000                	fld	fs0,32(s0)
     122:	0001                	nop
     124:	0200                	addi	s0,sp,256
     126:	00000093          	li	ra,0
     12a:	a202                	fsd	ft0,256(sp)
     12c:	0000                	unimp
     12e:	0000                	unimp
     130:	8305                	srli	a4,a4,0x1
     132:	0000                	unimp
     134:	0300                	addi	s0,sp,384
     136:	0832                	slli	a6,a6,0xc
     138:	008e                	slli	ra,ra,0x3
     13a:	0000                	unimp
     13c:	0000014b          	fnmsub.s	ft2,ft0,ft0,ft0,rne
     140:	9302                	jalr	t1
     142:	0000                	unimp
     144:	0200                	addi	s0,sp,256
     146:	00a2                	slli	ra,ra,0x8
     148:	0000                	unimp
     14a:	1400                	addi	s0,sp,544
     14c:	001d                	c.nop	7
     14e:	0000                	unimp
     150:	0c02                	c.slli64	s8
     152:	00008c07          	0x8c07
     156:	5d00                	lw	s0,56(a0)
     158:	0001                	nop
     15a:	0b00                	addi	s0,sp,400
     15c:	0500                	addi	s0,sp,640
     15e:	00000173          	0x173
     162:	1e04                	addi	s1,sp,816
     164:	6409                	lui	s0,0x2
     166:	0000                	unimp
     168:	7300                	ld	s0,32(a4)
     16a:	0001                	nop
     16c:	0200                	addi	s0,sp,256
     16e:	0064                	addi	s1,sp,12
     170:	0000                	unimp
     172:	0500                	addi	s0,sp,640
     174:	000e                	c.slli	zero,0x3
     176:	0000                	unimp
     178:	1302                	slli	t1,t1,0x20
     17a:	6405                	lui	s0,0x1
     17c:	0000                	unimp
     17e:	9300                	0x9300
     180:	0001                	nop
     182:	0200                	addi	s0,sp,256
     184:	0064                	addi	s1,sp,12
     186:	0000                	unimp
     188:	8c02                	jr	s8
     18a:	0000                	unimp
     18c:	0200                	addi	s0,sp,256
     18e:	00000043          	fmadd.s	ft0,ft0,ft0,ft0,rne
     192:	0500                	addi	s0,sp,640
     194:	00000157          	0x157
     198:	1202                	slli	tp,tp,0x20
     19a:	6405                	lui	s0,0x1
     19c:	0000                	unimp
     19e:	ae00                	fsd	fs0,24(a2)
     1a0:	0001                	nop
     1a2:	0200                	addi	s0,sp,256
     1a4:	009d                	addi	ra,ra,7
     1a6:	0000                	unimp
     1a8:	6402                	ld	s0,0(sp)
     1aa:	0000                	unimp
     1ac:	0000                	unimp
     1ae:	6c05                	lui	s8,0x1
     1b0:	0001                	nop
     1b2:	0200                	addi	s0,sp,256
     1b4:	050a                	slli	a0,a0,0x2
     1b6:	0064                	addi	s1,sp,12
     1b8:	0000                	unimp
     1ba:	01c5                	addi	gp,gp,17
     1bc:	0000                	unimp
     1be:	9d02                	jalr	s10
     1c0:	0000                	unimp
     1c2:	0b00                	addi	s0,sp,400
     1c4:	1500                	addi	s0,sp,672
     1c6:	0074                	addi	a3,sp,12
     1c8:	0000                	unimp
     1ca:	0a01                	addi	s4,s4,0
     1cc:	6405                	lui	s0,0x1
     1ce:	0000                	unimp
     1d0:	b000                	fsd	fs0,32(s0)
     1d2:	0100                	addi	s0,sp,128
     1d4:	0000                	unimp
     1d6:	0000                	unimp
     1d8:	2200                	fld	fs0,0(a2)
     1da:	0001                	nop
     1dc:	0000                	unimp
     1de:	0000                	unimp
     1e0:	0100                	addi	s0,sp,128
     1e2:	f39c                	sd	a5,32(a5)
     1e4:	0004                	0x4
     1e6:	0c00                	addi	s0,sp,528
     1e8:	00a1                	addi	ra,ra,8
     1ea:	0000                	unimp
     1ec:	640e                	ld	s0,192(sp)
     1ee:	0000                	unimp
     1f0:	0c00                	addi	s0,sp,528
     1f2:	0000                	unimp
     1f4:	0c00                	addi	s0,sp,528
     1f6:	0161                	addi	sp,sp,24
     1f8:	0000                	unimp
     1fa:	981a                	add	a6,a6,t1
     1fc:	0000                	unimp
     1fe:	3600                	fld	fs0,40(a2)
     200:	0000                	unimp
     202:	0600                	addi	s0,sp,768
     204:	6466                	ld	s0,88(sp)
     206:	0c00                	addi	s0,sp,528
     208:	00006407          	0x6407
     20c:	6000                	ld	s0,0(s0)
     20e:	0000                	unimp
     210:	1600                	addi	s0,sp,800
     212:	0038                	addi	a4,sp,8
     214:	0000                	unimp
     216:	0d01                	addi	s10,s10,0
     218:	00006407          	0x6407
     21c:	0000                	unimp
     21e:	0604                	addi	s1,sp,768
     220:	7562                	ld	a0,56(sp)
     222:	0066                	c.slli	zero,0x19
     224:	080e                	slli	a6,a6,0x3
     226:	000004f3          	0x4f3
     22a:	0074                	addi	a3,sp,12
     22c:	0000                	unimp
     22e:	00016607          	0x16607
     232:	0f00                	addi	s0,sp,912
     234:	8e09                	sub	a2,a2,a0
     236:	0000                	unimp
     238:	9d00                	0x9d00
     23a:	0000                	unimp
     23c:	1700                	addi	s0,sp,928
     23e:	0058                	addi	a4,sp,4
     240:	0000                	unimp
     242:	1001                	c.nop	-32
     244:	0608                	addi	a0,sp,768
     246:	0005                	c.nop	1
     248:	0200                	addi	s0,sp,256
     24a:	4891                	li	a7,4
     24c:	00001507          	0x1507
     250:	1500                	addi	s0,sp,672
     252:	8e09                	sub	a2,a2,a0
     254:	0000                	unimp
     256:	fd00                	sd	s0,56(a0)
     258:	0000                	unimp
     25a:	0700                	addi	s0,sp,896
     25c:	0152                	slli	sp,sp,0x14
     25e:	0000                	unimp
     260:	0916                	slli	s2,s2,0x5
     262:	008e                	slli	ra,ra,0x3
     264:	0000                	unimp
     266:	0111                	addi	sp,sp,4
     268:	0000                	unimp
     26a:	00003f07          	fld	ft10,0(zero) # 0 <main-0x100b0>
     26e:	1700                	addi	s0,sp,928
     270:	00006407          	0x6407
     274:	3800                	fld	fs0,48(s0)
     276:	0001                	nop
     278:	1800                	addi	s0,sp,48
     27a:	000c                	0xc
     27c:	0000                	unimp
     27e:	0445                	addi	s0,s0,17
     280:	0000                	unimp
     282:	7006                	0x7006
     284:	6469                	lui	s0,0x1a
     286:	2700                	fld	fs0,8(a4)
     288:	6409                	lui	s0,0x2
     28a:	0000                	unimp
     28c:	8700                	0x8700
     28e:	0001                	nop
     290:	1900                	addi	s0,sp,176
     292:	019a                	slli	gp,gp,0x6
     294:	0001                	nop
     296:	0000                	unimp
     298:	0000                	unimp
     29a:	001c                	0x1c
     29c:	0000                	unimp
     29e:	0000                	unimp
     2a0:	0000                	unimp
     2a2:	000002ef          	jal	t0,2a2 <main-0xfe0e>
     2a6:	7206                	ld	tp,96(sp)
     2a8:	7465                	lui	s0,0xffff9
     2aa:	2900                	fld	fs0,16(a0)
     2ac:	0000640b          	0x640b
     2b0:	ae00                	fsd	fs0,24(a2)
     2b2:	0001                	nop
     2b4:	0300                	addi	s0,sp,384
     2b6:	01a2                	slli	gp,gp,0x8
     2b8:	0001                	nop
     2ba:	0000                	unimp
     2bc:	0000                	unimp
     2be:	000000d3          	fadd.s	ft1,ft0,ft0,rne
     2c2:	000002d3          	fadd.s	ft5,ft0,ft0,rne
     2c6:	0101                	addi	sp,sp,0
     2c8:	025a                	slli	tp,tp,0x16
     2ca:	0079                	c.nop	30
     2cc:	0101                	addi	sp,sp,0
     2ce:	0082025b          	0x82025b
     2d2:	0d00                	addi	s0,sp,656
     2d4:	01b4                	addi	a3,sp,200
     2d6:	0001                	nop
     2d8:	0000                	unimp
     2da:	0000                	unimp
     2dc:	01ae                	slli	gp,gp,0xb
     2de:	0000                	unimp
     2e0:	0101                	addi	sp,sp,0
     2e2:	095a                	slli	s2,s2,0x16
     2e4:	01097803          	0x1097803
     2e8:	0000                	unimp
     2ea:	0000                	unimp
     2ec:	0000                	unimp
     2ee:	0300                	addi	s0,sp,384
     2f0:	011a                	slli	sp,sp,0x6
     2f2:	0001                	nop
     2f4:	0000                	unimp
     2f6:	0000                	unimp
     2f8:	0130                	addi	a2,sp,136
     2fa:	0000                	unimp
     2fc:	030c                	addi	a1,sp,384
     2fe:	0000                	unimp
     300:	0101                	addi	sp,sp,0
     302:	015a                	slli	sp,sp,0x16
     304:	0130                	addi	a2,sp,136
     306:	5b01                	li	s6,-32
     308:	7802                	ld	a6,32(sp)
     30a:	0048                	addi	a0,sp,4
     30c:	2208                	fld	fa0,0(a2)
     30e:	0101                	addi	sp,sp,0
     310:	0000                	unimp
     312:	0000                	unimp
     314:	bd00                	fsd	fs0,56(a0)
     316:	0000                	unimp
     318:	0300                	addi	s0,sp,384
     31a:	012e                	slli	sp,sp,0xb
     31c:	0001                	nop
     31e:	0000                	unimp
     320:	0000                	unimp
     322:	01ae                	slli	gp,gp,0xb
     324:	0000                	unimp
     326:	0338                	addi	a4,sp,392
     328:	0000                	unimp
     32a:	0101                	addi	sp,sp,0
     32c:	095a                	slli	s2,s2,0x16
     32e:	01098803          	lb	a6,16(s3)
     332:	0000                	unimp
     334:	0000                	unimp
     336:	0000                	unimp
     338:	01013c03          	ld	s8,16(sp)
     33c:	0000                	unimp
     33e:	0000                	unimp
     340:	3000                	fld	fs0,32(s0)
     342:	0001                	nop
     344:	5600                	lw	s0,40(a2)
     346:	01000003          	lb	zero,16(zero) # 10 <main-0x100a0>
     34a:	5a01                	li	s4,-32
     34c:	7202                	ld	tp,32(sp)
     34e:	0100                	addi	s0,sp,128
     350:	5b01                	li	s6,-32
     352:	7802                	ld	a6,32(sp)
     354:	0048                	addi	a0,sp,4
     356:	01014603          	lbu	a2,16(sp)
     35a:	0000                	unimp
     35c:	0000                	unimp
     35e:	1500                	addi	s0,sp,672
     360:	0001                	nop
     362:	6e00                	ld	s0,24(a2)
     364:	01000003          	lb	zero,16(zero) # 10 <main-0x100a0>
     368:	5a01                	li	s4,-32
     36a:	7902                	ld	s2,32(sp)
     36c:	0000                	unimp
     36e:	01015003          	lhu	zero,16(sp)
     372:	0000                	unimp
     374:	0000                	unimp
     376:	3000                	fld	fs0,32(s0)
     378:	0001                	nop
     37a:	8b00                	0x8b00
     37c:	01000003          	lb	zero,16(zero) # 10 <main-0x100a0>
     380:	5a01                	li	s4,-32
     382:	3001                	0x3001
     384:	0101                	addi	sp,sp,0
     386:	4878025b          	0x4878025b
     38a:	0300                	addi	s0,sp,384
     38c:	0158                	addi	a4,sp,132
     38e:	0001                	nop
     390:	0000                	unimp
     392:	0000                	unimp
     394:	0115                	addi	sp,sp,5
     396:	0000                	unimp
     398:	000003a3          	sb	zero,7(zero) # 7 <main-0x100a9>
     39c:	0101                	addi	sp,sp,0
     39e:	025a                	slli	tp,tp,0x16
     3a0:	0082                	c.slli64	ra
     3a2:	0300                	addi	s0,sp,384
     3a4:	0166                	slli	sp,sp,0x19
     3a6:	0001                	nop
     3a8:	0000                	unimp
     3aa:	0000                	unimp
     3ac:	00fa                	slli	ra,ra,0x1e
     3ae:	0000                	unimp
     3b0:	03c8                	addi	a0,sp,452
     3b2:	0000                	unimp
     3b4:	0101                	addi	sp,sp,0
     3b6:	025a                	slli	tp,tp,0x16
     3b8:	0079                	c.nop	30
     3ba:	0101                	addi	sp,sp,0
     3bc:	3003095b          	0x3003095b
     3c0:	0109                	addi	sp,sp,2
     3c2:	0000                	unimp
     3c4:	0000                	unimp
     3c6:	0000                	unimp
     3c8:	01017603          	0x1017603
     3cc:	0000                	unimp
     3ce:	0000                	unimp
     3d0:	fa00                	sd	s0,48(a2)
     3d2:	0000                	unimp
     3d4:	ed00                	sd	s0,24(a0)
     3d6:	01000003          	lb	zero,16(zero) # 10 <main-0x100a0>
     3da:	5a01                	li	s4,-32
     3dc:	8202                	jr	tp
     3de:	0100                	addi	s0,sp,128
     3e0:	5b01                	li	s6,-32
     3e2:	0309                	addi	t1,t1,2
     3e4:	0930                	addi	a2,sp,152
     3e6:	0001                	nop
     3e8:	0000                	unimp
     3ea:	0000                	unimp
     3ec:	0300                	addi	s0,sp,384
     3ee:	0188                	addi	a0,sp,192
     3f0:	0001                	nop
     3f2:	0000                	unimp
     3f4:	0000                	unimp
     3f6:	01ae                	slli	gp,gp,0xb
     3f8:	0000                	unimp
     3fa:	0418                	addi	a4,sp,512
     3fc:	0000                	unimp
     3fe:	0101                	addi	sp,sp,0
     400:	095a                	slli	s2,s2,0x16
     402:	01093803          	ld	a6,16(s2) # 1010 <main-0xf0a0>
     406:	0000                	unimp
     408:	0000                	unimp
     40a:	0100                	addi	s0,sp,128
     40c:	5b01                	li	s6,-32
     40e:	7902                	ld	s2,32(sp)
     410:	0100                	addi	s0,sp,128
     412:	5c01                	li	s8,-32
     414:	8202                	jr	tp
     416:	0000                	unimp
     418:	01019403          	lh	s0,16(gp) # 12214 <__global_pointer$+0x10>
     41c:	0000                	unimp
     41e:	0000                	unimp
     420:	ae00                	fsd	fs0,24(a2)
     422:	0001                	nop
     424:	3700                	fld	fs0,40(a4)
     426:	0004                	0x4
     428:	0100                	addi	s0,sp,128
     42a:	5a01                	li	s4,-32
     42c:	0309                	addi	t1,t1,2
     42e:	0950                	addi	a2,sp,148
     430:	0001                	nop
     432:	0000                	unimp
     434:	0000                	unimp
     436:	0800                	addi	s0,sp,16
     438:	0198                	addi	a4,sp,192
     43a:	0001                	nop
     43c:	0000                	unimp
     43e:	0000                	unimp
     440:	00ee                	slli	ra,ra,0x1b
     442:	0000                	unimp
     444:	0300                	addi	s0,sp,384
     446:	00cc                	addi	a1,sp,68
     448:	0001                	nop
     44a:	0000                	unimp
     44c:	0000                	unimp
     44e:	01ae                	slli	gp,gp,0xb
     450:	0000                	unimp
     452:	0464                	addi	s1,sp,524
     454:	0000                	unimp
     456:	0101                	addi	sp,sp,0
     458:	095a                	slli	s2,s2,0x16
     45a:	0108f803          	0x108f803
     45e:	0000                	unimp
     460:	0000                	unimp
     462:	0000                	unimp
     464:	0100ee03          	lwu	t3,16(ra)
     468:	0000                	unimp
     46a:	0000                	unimp
     46c:	9300                	0x9300
     46e:	0001                	nop
     470:	8800                	0x8800
     472:	0004                	0x4
     474:	0100                	addi	s0,sp,128
     476:	5a01                	li	s4,-32
     478:	0309                	addi	t1,t1,2
     47a:	0920                	addi	s0,sp,152
     47c:	0001                	nop
     47e:	0000                	unimp
     480:	0000                	unimp
     482:	0101                	addi	sp,sp,0
     484:	0030015b          	0x30015b
     488:	0100fa03          	0x100fa03
     48c:	0000                	unimp
     48e:	0000                	unimp
     490:	7300                	ld	s0,32(a4)
     492:	0001                	nop
     494:	ad00                	fsd	fs0,24(a0)
     496:	0004                	0x4
     498:	0100                	addi	s0,sp,128
     49a:	5a01                	li	s4,-32
     49c:	7902                	ld	s2,32(sp)
     49e:	0100                	addi	s0,sp,128
     4a0:	5b01                	li	s6,-32
     4a2:	7202                	ld	tp,32(sp)
     4a4:	0100                	addi	s0,sp,128
     4a6:	5c01                	li	s8,-32
     4a8:	04000a03          	lb	s4,64(zero) # 40 <main-0x10070>
     4ac:	0300                	addi	s0,sp,384
     4ae:	0100                	addi	s0,sp,128
     4b0:	0001                	nop
     4b2:	0000                	unimp
     4b4:	0000                	unimp
     4b6:	015d                	addi	sp,sp,23
     4b8:	0000                	unimp
     4ba:	04c5                	addi	s1,s1,17
     4bc:	0000                	unimp
     4be:	0101                	addi	sp,sp,0
     4c0:	025a                	slli	tp,tp,0x16
     4c2:	0079                	c.nop	30
     4c4:	0800                	addi	s0,sp,16
     4c6:	0104                	addi	s1,sp,128
     4c8:	0001                	nop
     4ca:	0000                	unimp
     4cc:	0000                	unimp
     4ce:	0000014b          	fnmsub.s	ft2,ft0,ft0,ft0,rne
     4d2:	0a08                	addi	a0,sp,272
     4d4:	0101                	addi	sp,sp,0
     4d6:	0000                	unimp
     4d8:	0000                	unimp
     4da:	4b00                	lw	s0,16(a4)
     4dc:	0001                	nop
     4de:	0d00                	addi	s0,sp,656
     4e0:	01bc                	addi	a5,sp,200
     4e2:	0001                	nop
     4e4:	0000                	unimp
     4e6:	0000                	unimp
     4e8:	000000a7          	0xa7
     4ec:	0101                	addi	sp,sp,0
     4ee:	015a                	slli	sp,sp,0x16
     4f0:	0030                	addi	a2,sp,8
     4f2:	1a00                	addi	s0,sp,304
     4f4:	0080                	addi	s0,sp,64
     4f6:	0000                	unimp
     4f8:	0506                	slli	a0,a0,0x1
     4fa:	0000                	unimp
     4fc:	0000791b          	0x791b
     500:	0300                	addi	s0,sp,384
     502:	ff0a                	sd	sp,440(sp)
     504:	801c0003          	lb	zero,-2047(s8) # 801 <main-0xf8af>
     508:	0000                	unimp
     50a:	1d00                	addi	s0,sp,688
     50c:	0079                	c.nop	30
     50e:	0000                	unimp
     510:	0002                	c.slli64	zero
     512:	8800                	0x8800
     514:	0500000b          	0x500000b
     518:	0100                	addi	s0,sp,128
     51a:	7708                	ld	a0,40(a4)
     51c:	0001                	nop
     51e:	1000                	addi	s0,sp,32
     520:	00a6                	slli	ra,ra,0x9
     522:	0000                	unimp
     524:	d60c                	sw	a1,40(a2)
     526:	0000                	unimp
     528:	0000                	unimp
     52a:	0000                	unimp
     52c:	d200                	sw	s0,32(a2)
     52e:	0101                	addi	sp,sp,0
     530:	0000                	unimp
     532:	0000                	unimp
     534:	0200                	addi	s0,sp,256
     536:	00000003          	lb	zero,0(zero) # 0 <main-0x100b0>
     53a:	0000                	unimp
     53c:	1b00                	addi	s0,sp,432
     53e:	0002                	c.slli64	zero
     540:	0600                	addi	s0,sp,768
     542:	0801                	addi	a6,a6,0
     544:	002a                	c.slli	zero,0xa
     546:	0000                	unimp
     548:	0206                	slli	tp,tp,0x1
     54a:	00004507          	flq	fa0,0(zero) # 0 <main-0x100b0>
     54e:	0600                	addi	s0,sp,768
     550:	0704                	addi	s1,sp,896
     552:	0094                	addi	a3,sp,64
     554:	0000                	unimp
     556:	4b09                	li	s6,2
     558:	0001                	nop
     55a:	0200                	addi	s0,sp,256
     55c:	004f1c07          	0x4f1c07
     560:	0000                	unimp
     562:	0806                	slli	a6,a6,0x1
     564:	00008a07          	0x8a07
     568:	0600                	addi	s0,sp,768
     56a:	0601                	addi	a2,a2,0
     56c:	002c                	addi	a1,sp,8
     56e:	0000                	unimp
     570:	0206                	slli	tp,tp,0x1
     572:	6505                	lui	a0,0x1
     574:	0000                	unimp
     576:	1100                	addi	s0,sp,160
     578:	0504                	addi	s1,sp,640
     57a:	6e69                	lui	t3,0x1a
     57c:	0074                	addi	a3,sp,12
     57e:	0806                	slli	a6,a6,0x1
     580:	0005                	c.nop	1
     582:	0000                	unimp
     584:	0600                	addi	s0,sp,768
     586:	0508                	addi	a0,sp,640
     588:	0005                	c.nop	1
     58a:	0000                	unimp
     58c:	8b09                	andi	a4,a4,2
     58e:	0001                	nop
     590:	0200                	addi	s0,sp,256
     592:	1711                	addi	a4,a4,-28
     594:	0085                	addi	ra,ra,1
     596:	0000                	unimp
     598:	0806                	slli	a6,a6,0x1
     59a:	00008f07          	0x8f07
     59e:	1200                	addi	s0,sp,288
     5a0:	6964                	ld	s1,208(a0)
     5a2:	0072                	c.slli	zero,0x1c
     5a4:	0224                	addi	s1,sp,264
     5a6:	082d                	addi	a6,a6,11
     5a8:	00b2                	slli	ra,ra,0xc
     5aa:	0000                	unimp
     5ac:	00022507          	flw	fa0,0(tp) # fffffffffffe1000 <__global_pointer$+0xfffffffffffcedfc>
     5b0:	2e00                	fld	fs0,24(a2)
     5b2:	b208                	fsd	fa0,32(a2)
     5b4:	0000                	unimp
     5b6:	0000                	unimp
     5b8:	0001d207          	0x1d207
     5bc:	2f00                	fld	fs0,24(a4)
     5be:	00006407          	0x6407
     5c2:	2000                	fld	fs0,0(s0)
     5c4:	0e00                	addi	s0,sp,784
     5c6:	00c2                	slli	ra,ra,0x10
     5c8:	0000                	unimp
     5ca:	00c2                	slli	ra,ra,0x10
     5cc:	0000                	unimp
     5ce:	0000850f          	0x850f
     5d2:	1f00                	addi	s0,sp,944
     5d4:	0600                	addi	s0,sp,768
     5d6:	0801                	addi	a6,a6,0
     5d8:	00000033          	add	zero,zero,zero
     5dc:	0000c213          	xori	tp,ra,0
     5e0:	1400                	addi	s0,sp,544
     5e2:	01e5                	addi	gp,gp,25
     5e4:	0000                	unimp
     5e6:	0214                	addi	a3,sp,256
     5e8:	0832                	slli	a6,a6,0xc
     5ea:	0118                	addi	a4,sp,128
     5ec:	0000                	unimp
     5ee:	0001cf07          	flq	ft10,0(gp) # 12204 <__global_pointer$>
     5f2:	3300                	fld	fs0,32(a4)
     5f4:	00006407          	0x6407
     5f8:	0000                	unimp
     5fa:	00017907          	0x17907
     5fe:	3400                	fld	fs0,40(s0)
     600:	00006407          	0x6407
     604:	0400                	addi	s0,sp,512
     606:	00023c07          	fld	fs8,0(tp) # 0 <main-0x100b0>
     60a:	3500                	fld	fs0,40(a0)
     60c:	00006407          	0x6407
     610:	0800                	addi	s0,sp,16
     612:	00024407          	flq	fs0,0(tp) # 0 <main-0x100b0>
     616:	3600                	fld	fs0,40(a2)
     618:	00006407          	0x6407
     61c:	0c00                	addi	s0,sp,528
     61e:	0001ff07          	0x1ff07
     622:	3700                	fld	fs0,40(a4)
     624:	00006407          	0x6407
     628:	1000                	addi	s0,sp,32
     62a:	0900                	addi	s0,sp,144
     62c:	0192                	slli	gp,gp,0x4
     62e:	0000                	unimp
     630:	640d3403          	ld	s0,1600(s10)
     634:	0000                	unimp
     636:	1500                	addi	s0,sp,672
     638:	1608                	addi	a0,sp,800
     63a:	2a08                	fld	fa0,16(a2)
     63c:	0002                	c.slli64	zero
     63e:	0a00                	addi	s0,sp,272
     640:	00c2                	slli	ra,ra,0x10
     642:	0000                	unimp
     644:	9409                	srai	s0,s0,0x22
     646:	0001                	nop
     648:	0400                	addi	s0,sp,512
     64a:	12ae                	slli	t0,t0,0x2b
     64c:	0118                	addi	a4,sp,128
     64e:	0000                	unimp
     650:	c90a                	sw	sp,144(sp)
     652:	0000                	unimp
     654:	0a00                	addi	s0,sp,272
     656:	00ce                	slli	ra,ra,0x13
     658:	0000                	unimp
     65a:	8c0a                	mv	s8,sp
     65c:	0000                	unimp
     65e:	0900                	addi	s0,sp,144
     660:	0269                	addi	tp,tp,26
     662:	0000                	unimp
     664:	2805                	addiw	a6,a6,1
     666:	0001261b          	0x1261b
     66a:	0900                	addi	s0,sp,144
     66c:	0270                	addi	a2,sp,268
     66e:	0000                	unimp
     670:	6305                	lui	t1,0x1
     672:	4c18                	lw	a4,24(s0)
     674:	0001                	nop
     676:	1700                	addi	s0,sp,928
     678:	000001eb          	0x1eb
     67c:	64050907          	0x64050907
     680:	0000                	unimp
     682:	8900                	0x8900
     684:	0001                	nop
     686:	0b00                	addi	s0,sp,400
     688:	012c                	addi	a1,sp,136
     68a:	0000                	unimp
     68c:	0000790b          	0x790b
     690:	0b00                	addi	s0,sp,400
     692:	013d                	addi	sp,sp,15
     694:	0000                	unimp
     696:	0001580b          	0x1580b
     69a:	0000                	unimp
     69c:	00006f03          	lwu	t5,0(zero) # 0 <main-0x100b0>
     6a0:	0100                	addi	s0,sp,128
     6a2:	006405b3          	add	a1,s0,t1
     6a6:	0000                	unimp
     6a8:	04b2                	slli	s1,s1,0xc
     6aa:	0001                	nop
     6ac:	0000                	unimp
     6ae:	0000                	unimp
     6b0:	0022                	c.slli	zero,0x8
     6b2:	0000                	unimp
     6b4:	0000                	unimp
     6b6:	0000                	unimp
     6b8:	9c01                	subw	s0,s0,s0
     6ba:	01ed                	addi	gp,gp,27
     6bc:	0000                	unimp
     6be:	7004                	ld	s1,32(s0)
     6c0:	6469                	lui	s0,0x1a
     6c2:	b300                	fsd	fs0,32(a4)
     6c4:	640e                	ld	s0,192(sp)
     6c6:	0000                	unimp
     6c8:	ce00                	sw	s0,24(a2)
     6ca:	0001                	nop
     6cc:	0200                	addi	s0,sp,256
     6ce:	04cc                	addi	a1,sp,580
     6d0:	0001                	nop
     6d2:	0000                	unimp
     6d4:	0000                	unimp
     6d6:	00000afb          	0xafb
     6da:	0101                	addi	sp,sp,0
     6dc:	025a                	slli	tp,tp,0x16
     6de:	4608                	lw	a0,8(a2)
     6e0:	0101                	addi	sp,sp,0
     6e2:	015c                	addi	a5,sp,132
     6e4:	0130                	addi	a2,sp,136
     6e6:	5d01                	li	s10,-32
     6e8:	3001                	0x3001
     6ea:	0101                	addi	sp,sp,0
     6ec:	015e                	slli	sp,sp,0x17
     6ee:	0130                	addi	a2,sp,136
     6f0:	5f01                	li	t5,-32
     6f2:	3001                	0x3001
     6f4:	0101                	addi	sp,sp,0
     6f6:	0160                	addi	s0,sp,140
     6f8:	0130                	addi	a2,sp,136
     6fa:	6101                	addi	sp,sp,0
     6fc:	3001                	0x3001
     6fe:	0000                	unimp
     700:	00017303          	0x17303
     704:	0600                	addi	s0,sp,768
     706:	091e                	slli	s2,s2,0x7
     708:	0064                	addi	s1,sp,12
     70a:	0000                	unimp
     70c:	0490                	addi	a2,sp,576
     70e:	0001                	nop
     710:	0000                	unimp
     712:	0000                	unimp
     714:	0022                	c.slli	zero,0x8
     716:	0000                	unimp
     718:	0000                	unimp
     71a:	0000                	unimp
     71c:	9c01                	subw	s0,s0,s0
     71e:	0250                	addi	a2,sp,260
     720:	0000                	unimp
     722:	6604                	ld	s1,8(a2)
     724:	0064                	addi	s1,sp,12
     726:	0fac                	addi	a1,sp,984
     728:	0064                	addi	s1,sp,12
     72a:	0000                	unimp
     72c:	01f8                	addi	a4,sp,204
     72e:	0000                	unimp
     730:	aa02                	fsd	ft0,272(sp)
     732:	0104                	addi	s1,sp,128
     734:	0000                	unimp
     736:	0000                	unimp
     738:	fb00                	sd	s0,48(a4)
     73a:	000a                	c.slli	zero,0x2
     73c:	0100                	addi	s0,sp,128
     73e:	5a01                	li	s4,-32
     740:	0802                	c.slli64	a6
     742:	5c010157          	0x5c010157
     746:	3001                	0x3001
     748:	0101                	addi	sp,sp,0
     74a:	015d                	addi	sp,sp,23
     74c:	0130                	addi	a2,sp,136
     74e:	5e01                	li	t3,-32
     750:	3001                	0x3001
     752:	0101                	addi	sp,sp,0
     754:	015f 0130 6001      	0x60010130015f
     75a:	3001                	0x3001
     75c:	0101                	addi	sp,sp,0
     75e:	0161                	addi	sp,sp,24
     760:	0030                	addi	a2,sp,8
     762:	0300                	addi	s0,sp,384
     764:	01dc                	addi	a5,sp,196
     766:	0000                	unimp
     768:	a501                	j	d68 <main-0xf348>
     76a:	6405                	lui	s0,0x1
     76c:	0000                	unimp
     76e:	6e00                	ld	s0,24(a2)
     770:	0104                	addi	s1,sp,128
     772:	0000                	unimp
     774:	0000                	unimp
     776:	2200                	fld	fs0,0(a2)
     778:	0000                	unimp
     77a:	0000                	unimp
     77c:	0000                	unimp
     77e:	0100                	addi	s0,sp,128
     780:	ba9c                	fsd	fa5,48(a3)
     782:	0002                	c.slli64	zero
     784:	0400                	addi	s0,sp,512
     786:	6e66                	ld	t3,88(sp)
     788:	a500                	fsd	fs0,8(a0)
     78a:	3d1a                	fld	fs10,416(sp)
     78c:	0001                	nop
     78e:	2200                	fld	fs0,0(a2)
     790:	0002                	c.slli64	zero
     792:	0200                	addi	s0,sp,256
     794:	0488                	addi	a0,sp,576
     796:	0001                	nop
     798:	0000                	unimp
     79a:	0000                	unimp
     79c:	00000afb          	0xafb
     7a0:	0101                	addi	sp,sp,0
     7a2:	025a                	slli	tp,tp,0x16
     7a4:	5d08                	lw	a0,56(a0)
     7a6:	0101                	addi	sp,sp,0
     7a8:	01a3035b          	0x1a3035b
     7ac:	015a                	slli	sp,sp,0x16
     7ae:	5c01                	li	s8,-32
     7b0:	3001                	0x3001
     7b2:	0101                	addi	sp,sp,0
     7b4:	015d                	addi	sp,sp,23
     7b6:	0130                	addi	a2,sp,136
     7b8:	5e01                	li	t3,-32
     7ba:	3001                	0x3001
     7bc:	0101                	addi	sp,sp,0
     7be:	015f 0130 6001      	0x60010130015f
     7c4:	3001                	0x3001
     7c6:	0101                	addi	sp,sp,0
     7c8:	0161                	addi	sp,sp,24
     7ca:	0030                	addi	a2,sp,8
     7cc:	0300                	addi	s0,sp,384
     7ce:	01de                	slli	gp,gp,0x17
     7d0:	0000                	unimp
     7d2:	9e01                	subw	a2,a2,s0
     7d4:	6405                	lui	s0,0x1
     7d6:	0000                	unimp
     7d8:	4c00                	lw	s0,24(s0)
     7da:	0104                	addi	s1,sp,128
     7dc:	0000                	unimp
     7de:	0000                	unimp
     7e0:	2200                	fld	fs0,0(a2)
     7e2:	0000                	unimp
     7e4:	0000                	unimp
     7e6:	0000                	unimp
     7e8:	0100                	addi	s0,sp,128
     7ea:	369c                	fld	fa5,40(a3)
     7ec:	04000003          	lb	zero,64(zero) # 40 <main-0x10070>
     7f0:	6e66                	ld	t3,88(sp)
     7f2:	0031                	c.nop	12
     7f4:	189e                	slli	a7,a7,0x27
     7f6:	013d                	addi	sp,sp,15
     7f8:	0000                	unimp
     7fa:	025f 0000 6604      	0x66040000025f
     800:	326e                	fld	ft4,248(sp)
     802:	9e00                	0x9e00
     804:	3d29                	addiw	s10,s10,-22
     806:	0001                	nop
     808:	9c00                	0x9c00
     80a:	0002                	c.slli64	zero
     80c:	0200                	addi	s0,sp,256
     80e:	0466                	slli	s0,s0,0x19
     810:	0001                	nop
     812:	0000                	unimp
     814:	0000                	unimp
     816:	00000afb          	0xafb
     81a:	0101                	addi	sp,sp,0
     81c:	025a                	slli	tp,tp,0x16
     81e:	5c08                	lw	a0,56(s0)
     820:	0101                	addi	sp,sp,0
     822:	01a3035b          	0x1a3035b
     826:	015a                	slli	sp,sp,0x16
     828:	5c01                	li	s8,-32
     82a:	5b01a303          	lw	t1,1456(gp) # 127b4 <__global_pointer$+0x5b0>
     82e:	0101                	addi	sp,sp,0
     830:	015d                	addi	sp,sp,23
     832:	0130                	addi	a2,sp,136
     834:	5e01                	li	t3,-32
     836:	3001                	0x3001
     838:	0101                	addi	sp,sp,0
     83a:	015f 0130 6001      	0x60010130015f
     840:	3001                	0x3001
     842:	0101                	addi	sp,sp,0
     844:	0161                	addi	sp,sp,24
     846:	0030                	addi	a2,sp,8
     848:	0300                	addi	s0,sp,384
     84a:	0210                	addi	a2,sp,256
     84c:	0000                	unimp
     84e:	9701                	srai	a4,a4,0x20
     850:	6405                	lui	s0,0x1
     852:	0000                	unimp
     854:	2a00                	fld	fs0,16(a2)
     856:	0104                	addi	s1,sp,128
     858:	0000                	unimp
     85a:	0000                	unimp
     85c:	2200                	fld	fs0,0(a2)
     85e:	0000                	unimp
     860:	0000                	unimp
     862:	0000                	unimp
     864:	0100                	addi	s0,sp,128
     866:	999c                	0x999c
     868:	04000003          	lb	zero,64(zero) # 40 <main-0x10070>
     86c:	6466                	ld	s0,88(sp)
     86e:	9700                	0x9700
     870:	6414                	ld	a3,8(s0)
     872:	0000                	unimp
     874:	d900                	sw	s0,48(a0)
     876:	0002                	c.slli64	zero
     878:	0200                	addi	s0,sp,256
     87a:	0444                	addi	s1,sp,516
     87c:	0001                	nop
     87e:	0000                	unimp
     880:	0000                	unimp
     882:	00000afb          	0xafb
     886:	0101                	addi	sp,sp,0
     888:	025a                	slli	tp,tp,0x16
     88a:	5b08                	lw	a0,48(a4)
     88c:	0101                	addi	sp,sp,0
     88e:	015c                	addi	a5,sp,132
     890:	0130                	addi	a2,sp,136
     892:	5d01                	li	s10,-32
     894:	3001                	0x3001
     896:	0101                	addi	sp,sp,0
     898:	015e                	slli	sp,sp,0x17
     89a:	0130                	addi	a2,sp,136
     89c:	5f01                	li	t5,-32
     89e:	3001                	0x3001
     8a0:	0101                	addi	sp,sp,0
     8a2:	0160                	addi	s0,sp,140
     8a4:	0130                	addi	a2,sp,136
     8a6:	6101                	addi	sp,sp,0
     8a8:	3001                	0x3001
     8aa:	0000                	unimp
     8ac:	00025403          	lhu	s0,0(tp) # 0 <main-0x100b0>
     8b0:	0100                	addi	s0,sp,128
     8b2:	0590                	addi	a2,sp,704
     8b4:	0064                	addi	s1,sp,12
     8b6:	0000                	unimp
     8b8:	0408                	addi	a0,sp,512
     8ba:	0001                	nop
     8bc:	0000                	unimp
     8be:	0000                	unimp
     8c0:	0022                	c.slli	zero,0x8
     8c2:	0000                	unimp
     8c4:	0000                	unimp
     8c6:	0000                	unimp
     8c8:	9c01                	subw	s0,s0,s0
     8ca:	0404                	addi	s1,sp,512
     8cc:	0000                	unimp
     8ce:	2105                	addiw	sp,sp,1
     8d0:	0002                	c.slli64	zero
     8d2:	9000                	0x9000
     8d4:	3d19                	addiw	s10,s10,-26
     8d6:	0001                	nop
     8d8:	0300                	addi	s0,sp,384
     8da:	02000003          	lb	zero,32(zero) # 20 <main-0x10090>
     8de:	0422                	slli	s0,s0,0x8
     8e0:	0001                	nop
     8e2:	0000                	unimp
     8e4:	0000                	unimp
     8e6:	00000afb          	0xafb
     8ea:	0101                	addi	sp,sp,0
     8ec:	025a                	slli	tp,tp,0x16
     8ee:	5a08                	lw	a0,48(a2)
     8f0:	0101                	addi	sp,sp,0
     8f2:	01a3035b          	0x1a3035b
     8f6:	015a                	slli	sp,sp,0x16
     8f8:	5c01                	li	s8,-32
     8fa:	3001                	0x3001
     8fc:	0101                	addi	sp,sp,0
     8fe:	015d                	addi	sp,sp,23
     900:	0130                	addi	a2,sp,136
     902:	5e01                	li	t3,-32
     904:	3001                	0x3001
     906:	0101                	addi	sp,sp,0
     908:	015f 0130 6001      	0x60010130015f
     90e:	3001                	0x3001
     910:	0101                	addi	sp,sp,0
     912:	0161                	addi	sp,sp,24
     914:	0030                	addi	a2,sp,8
     916:	0300                	addi	s0,sp,384
     918:	01f5                	addi	gp,gp,29
     91a:	0000                	unimp
     91c:	8901                	andi	a0,a0,0
     91e:	6405                	lui	s0,0x1
     920:	0000                	unimp
     922:	e600                	sd	s0,8(a2)
     924:	00000103          	lb	sp,0(zero) # 0 <main-0x100b0>
     928:	0000                	unimp
     92a:	2200                	fld	fs0,0(a2)
     92c:	0000                	unimp
     92e:	0000                	unimp
     930:	0000                	unimp
     932:	0100                	addi	s0,sp,128
     934:	789c                	ld	a5,48(s1)
     936:	0004                	0x4
     938:	0400                	addi	s0,sp,512
     93a:	6466                	ld	s0,88(sp)
     93c:	8900                	0x8900
     93e:	00006413          	ori	s0,zero,0
     942:	4000                	lw	s0,0(s0)
     944:	04000003          	lb	zero,64(zero) # 40 <main-0x10070>
     948:	6964                	ld	s1,208(a0)
     94a:	0072                	c.slli	zero,0x1c
     94c:	2389                	addiw	t2,t2,2
     94e:	00000147          	fmsub.s	ft2,ft0,ft0,ft0,rne
     952:	036a                	slli	t1,t1,0x1a
     954:	0000                	unimp
     956:	0002                	c.slli64	zero
     958:	0104                	addi	s1,sp,128
     95a:	0000                	unimp
     95c:	0000                	unimp
     95e:	fb00                	sd	s0,48(a4)
     960:	000a                	c.slli	zero,0x2
     962:	0100                	addi	s0,sp,128
     964:	5a01                	li	s4,-32
     966:	0802                	c.slli64	a6
     968:	0159                	addi	sp,sp,22
     96a:	5c01                	li	s8,-32
     96c:	5b01a303          	lw	t1,1456(gp) # 127b4 <__global_pointer$+0x5b0>
     970:	0101                	addi	sp,sp,0
     972:	015d                	addi	sp,sp,23
     974:	0130                	addi	a2,sp,136
     976:	5e01                	li	t3,-32
     978:	3001                	0x3001
     97a:	0101                	addi	sp,sp,0
     97c:	015f 0130 6001      	0x60010130015f
     982:	3001                	0x3001
     984:	0101                	addi	sp,sp,0
     986:	0161                	addi	sp,sp,24
     988:	0030                	addi	a2,sp,8
     98a:	0300                	addi	s0,sp,384
     98c:	0181                	addi	gp,gp,0
     98e:	0000                	unimp
     990:	8201                	c.srli64	a2
     992:	6405                	lui	s0,0x1
     994:	0000                	unimp
     996:	c400                	sw	s0,8(s0)
     998:	00000103          	lb	sp,0(zero) # 0 <main-0x100b0>
     99c:	0000                	unimp
     99e:	2200                	fld	fs0,0(a2)
     9a0:	0000                	unimp
     9a2:	0000                	unimp
     9a4:	0000                	unimp
     9a6:	0100                	addi	s0,sp,128
     9a8:	e39c                	sd	a5,0(a5)
     9aa:	0004                	0x4
     9ac:	0500                	addi	s0,sp,640
     9ae:	01a5                	addi	gp,gp,9
     9b0:	0000                	unimp
     9b2:	1b82                	slli	s7,s7,0x20
     9b4:	013d                	addi	sp,sp,15
     9b6:	0000                	unimp
     9b8:	000003a7          	0x3a7
     9bc:	de02                	sw	zero,60(sp)
     9be:	00000103          	lb	sp,0(zero) # 0 <main-0x100b0>
     9c2:	0000                	unimp
     9c4:	fb00                	sd	s0,48(a4)
     9c6:	000a                	c.slli	zero,0x2
     9c8:	0100                	addi	s0,sp,128
     9ca:	5a01                	li	s4,-32
     9cc:	0802                	c.slli64	a6
     9ce:	0158                	addi	a4,sp,132
     9d0:	5b01                	li	s6,-32
     9d2:	5a01a303          	lw	t1,1440(gp) # 127a4 <__global_pointer$+0x5a0>
     9d6:	0101                	addi	sp,sp,0
     9d8:	015c                	addi	a5,sp,132
     9da:	0130                	addi	a2,sp,136
     9dc:	5d01                	li	s10,-32
     9de:	3001                	0x3001
     9e0:	0101                	addi	sp,sp,0
     9e2:	015e                	slli	sp,sp,0x17
     9e4:	0130                	addi	a2,sp,136
     9e6:	5f01                	li	t5,-32
     9e8:	3001                	0x3001
     9ea:	0101                	addi	sp,sp,0
     9ec:	0160                	addi	s0,sp,140
     9ee:	0130                	addi	a2,sp,136
     9f0:	6101                	addi	sp,sp,0
     9f2:	3001                	0x3001
     9f4:	0000                	unimp
     9f6:	00027f03          	0x27f03
     9fa:	0100                	addi	s0,sp,128
     9fc:	0064057b          	0x64057b
     a00:	0000                	unimp
     a02:	03a2                	slli	t2,t2,0x8
     a04:	0001                	nop
     a06:	0000                	unimp
     a08:	0000                	unimp
     a0a:	0022                	c.slli	zero,0x8
     a0c:	0000                	unimp
     a0e:	0000                	unimp
     a10:	0000                	unimp
     a12:	9c01                	subw	s0,s0,s0
     a14:	00000557          	0x557
     a18:	6604                	ld	s1,8(a2)
     a1a:	0064                	addi	s1,sp,12
     a1c:	0064157b          	0x64157b
     a20:	0000                	unimp
     a22:	03e4                	addi	s1,sp,460
     a24:	0000                	unimp
     a26:	e505                	bnez	a0,a4e <main-0xf662>
     a28:	0001                	nop
     a2a:	7b00                	ld	s0,48(a4)
     a2c:	00014227          	fsq	ft0,4(sp)
     a30:	0e00                	addi	s0,sp,784
     a32:	0004                	0x4
     a34:	0200                	addi	s0,sp,256
     a36:	03bc                	addi	a5,sp,456
     a38:	0001                	nop
     a3a:	0000                	unimp
     a3c:	0000                	unimp
     a3e:	00000afb          	0xafb
     a42:	0101                	addi	sp,sp,0
     a44:	025a                	slli	tp,tp,0x16
     a46:	5608                	lw	a0,40(a2)
     a48:	0101                	addi	sp,sp,0
     a4a:	035c                	addi	a5,sp,388
     a4c:	015b01a3          	sb	s5,3(s6)
     a50:	5d01                	li	s10,-32
     a52:	3001                	0x3001
     a54:	0101                	addi	sp,sp,0
     a56:	015e                	slli	sp,sp,0x17
     a58:	0130                	addi	a2,sp,136
     a5a:	5f01                	li	t5,-32
     a5c:	3001                	0x3001
     a5e:	0101                	addi	sp,sp,0
     a60:	0160                	addi	s0,sp,140
     a62:	0130                	addi	a2,sp,136
     a64:	6101                	addi	sp,sp,0
     a66:	3001                	0x3001
     a68:	0000                	unimp
     a6a:	00028403          	lb	s0,0(t0)
     a6e:	0100                	addi	s0,sp,128
     a70:	0574                	addi	a3,sp,652
     a72:	0064                	addi	s1,sp,12
     a74:	0000                	unimp
     a76:	0380                	addi	s0,sp,448
     a78:	0001                	nop
     a7a:	0000                	unimp
     a7c:	0000                	unimp
     a7e:	0022                	c.slli	zero,0x8
     a80:	0000                	unimp
     a82:	0000                	unimp
     a84:	0000                	unimp
     a86:	9c01                	subw	s0,s0,s0
     a88:	000005cb          	fnmsub.s	fa1,ft0,ft0,ft0,rne
     a8c:	6604                	ld	s1,8(a2)
     a8e:	0064                	addi	s1,sp,12
     a90:	1074                	addi	a3,sp,44
     a92:	0064                	addi	s1,sp,12
     a94:	0000                	unimp
     a96:	0000044b          	fnmsub.s	fs0,ft0,ft0,ft0,rne
     a9a:	e505                	bnez	a0,ac2 <main-0xf5ee>
     a9c:	0001                	nop
     a9e:	7400                	ld	s0,40(s0)
     aa0:	4222                	lw	tp,8(sp)
     aa2:	0001                	nop
     aa4:	7500                	ld	s0,40(a0)
     aa6:	0004                	0x4
     aa8:	0200                	addi	s0,sp,256
     aaa:	039a                	slli	t2,t2,0x6
     aac:	0001                	nop
     aae:	0000                	unimp
     ab0:	0000                	unimp
     ab2:	00000afb          	0xafb
     ab6:	0101                	addi	sp,sp,0
     ab8:	025a                	slli	tp,tp,0x16
     aba:	5508                	lw	a0,40(a0)
     abc:	0101                	addi	sp,sp,0
     abe:	035c                	addi	a5,sp,388
     ac0:	015b01a3          	sb	s5,3(s6)
     ac4:	5d01                	li	s10,-32
     ac6:	3001                	0x3001
     ac8:	0101                	addi	sp,sp,0
     aca:	015e                	slli	sp,sp,0x17
     acc:	0130                	addi	a2,sp,136
     ace:	5f01                	li	t5,-32
     ad0:	3001                	0x3001
     ad2:	0101                	addi	sp,sp,0
     ad4:	0160                	addi	s0,sp,140
     ad6:	0130                	addi	a2,sp,136
     ad8:	6101                	addi	sp,sp,0
     ada:	3001                	0x3001
     adc:	0000                	unimp
     ade:	00026103          	lwu	sp,0(tp) # 0 <main-0x100b0>
     ae2:	0100                	addi	s0,sp,128
     ae4:	056d                	addi	a0,a0,27
     ae6:	0064                	addi	s1,sp,12
     ae8:	0000                	unimp
     aea:	035e                	slli	t1,t1,0x17
     aec:	0001                	nop
     aee:	0000                	unimp
     af0:	0000                	unimp
     af2:	0022                	c.slli	zero,0x8
     af4:	0000                	unimp
     af6:	0000                	unimp
     af8:	0000                	unimp
     afa:	9c01                	subw	s0,s0,s0
     afc:	0642                	slli	a2,a2,0x10
     afe:	0000                	unimp
     b00:	6604                	ld	s1,8(a2)
     b02:	0064                	addi	s1,sp,12
     b04:	116d                	addi	sp,sp,-5
     b06:	0064                	addi	s1,sp,12
     b08:	0000                	unimp
     b0a:	04b2                	slli	s1,s1,0xc
     b0c:	0000                	unimp
     b0e:	b505                	j	92e <main-0xf782>
     b10:	0001                	nop
     b12:	6d00                	ld	s0,24(a0)
     b14:	6419                	lui	s0,0x6
     b16:	0000                	unimp
     b18:	dc00                	sw	s0,56(s0)
     b1a:	0004                	0x4
     b1c:	0500                	addi	s0,sp,640
     b1e:	0278                	addi	a4,sp,268
     b20:	0000                	unimp
     b22:	256d                	addiw	a0,a0,27
     b24:	0064                	addi	s1,sp,12
     b26:	0000                	unimp
     b28:	0506                	slli	a0,a0,0x1
     b2a:	0000                	unimp
     b2c:	7802                	ld	a6,32(sp)
     b2e:	00000103          	lb	sp,0(zero) # 0 <main-0x100b0>
     b32:	0000                	unimp
     b34:	fb00                	sd	s0,48(a4)
     b36:	000a                	c.slli	zero,0x2
     b38:	0100                	addi	s0,sp,128
     b3a:	5a01                	li	s4,-32
     b3c:	0802                	c.slli64	a6
     b3e:	0154                	addi	a3,sp,132
     b40:	5e01                	li	t3,-32
     b42:	3001                	0x3001
     b44:	0101                	addi	sp,sp,0
     b46:	015f 0130 6001      	0x60010130015f
     b4c:	3001                	0x3001
     b4e:	0101                	addi	sp,sp,0
     b50:	0161                	addi	sp,sp,24
     b52:	0030                	addi	a2,sp,8
     b54:	0300                	addi	s0,sp,384
     b56:	01ad                	addi	gp,gp,11
     b58:	0000                	unimp
     b5a:	6601                	0x6601
     b5c:	6405                	lui	s0,0x1
     b5e:	0000                	unimp
     b60:	3c00                	fld	fs0,56(s0)
     b62:	00000103          	lb	sp,0(zero) # 0 <main-0x100b0>
     b66:	0000                	unimp
     b68:	2200                	fld	fs0,0(a2)
     b6a:	0000                	unimp
     b6c:	0000                	unimp
     b6e:	0000                	unimp
     b70:	0100                	addi	s0,sp,128
     b72:	c79c                	sw	a5,8(a5)
     b74:	0006                	c.slli	zero,0x1
     b76:	0400                	addi	s0,sp,512
     b78:	6466                	ld	s0,88(sp)
     b7a:	6600                	ld	s0,8(a2)
     b7c:	6411                	lui	s0,0x4
     b7e:	0000                	unimp
     b80:	3000                	fld	fs0,32(s0)
     b82:	0005                	c.nop	1
     b84:	0400                	addi	s0,sp,512
     b86:	7562                	ld	a0,56(sp)
     b88:	0066                	c.slli	zero,0x19
     b8a:	1b66                	slli	s6,s6,0x39
     b8c:	0124                	addi	s1,sp,136
     b8e:	0000                	unimp
     b90:	055a                	slli	a0,a0,0x16
     b92:	0000                	unimp
     b94:	4e05                	li	t3,1
     b96:	0002                	c.slli64	zero
     b98:	6600                	ld	s0,8(a2)
     b9a:	00004327          	fsq	ft0,6(zero) # 6 <main-0x100aa>
     b9e:	9700                	0x9700
     ba0:	0005                	c.nop	1
     ba2:	0200                	addi	s0,sp,256
     ba4:	0356                	slli	t1,t1,0x15
     ba6:	0001                	nop
     ba8:	0000                	unimp
     baa:	0000                	unimp
     bac:	00000afb          	0xafb
     bb0:	0101                	addi	sp,sp,0
     bb2:	025a                	slli	tp,tp,0x16
     bb4:	5308                	lw	a0,32(a4)
     bb6:	0101                	addi	sp,sp,0
     bb8:	035c                	addi	a5,sp,388
     bba:	015b01a3          	sb	s5,3(s6)
     bbe:	5d01                	li	s10,-32
     bc0:	5c01a303          	lw	t1,1472(gp) # 127c4 <__global_pointer$+0x5c0>
     bc4:	0101                	addi	sp,sp,0
     bc6:	015e                	slli	sp,sp,0x17
     bc8:	0130                	addi	a2,sp,136
     bca:	5f01                	li	t5,-32
     bcc:	3001                	0x3001
     bce:	0101                	addi	sp,sp,0
     bd0:	0160                	addi	s0,sp,140
     bd2:	0130                	addi	a2,sp,136
     bd4:	6101                	addi	sp,sp,0
     bd6:	3001                	0x3001
     bd8:	0000                	unimp
     bda:	00000e03          	lb	t3,0(zero) # 0 <main-0x100b0>
     bde:	0100                	addi	s0,sp,128
     be0:	055f 0064 0000      	0x64055f
     be6:	031a                	slli	t1,t1,0x6
     be8:	0001                	nop
     bea:	0000                	unimp
     bec:	0000                	unimp
     bee:	0022                	c.slli	zero,0x8
     bf0:	0000                	unimp
     bf2:	0000                	unimp
     bf4:	0000                	unimp
     bf6:	9c01                	subw	s0,s0,s0
     bf8:	074c                	addi	a1,sp,900
     bfa:	0000                	unimp
     bfc:	6604                	ld	s1,8(a2)
     bfe:	0064                	addi	s1,sp,12
     c00:	105f 0064 0000      	0x64105f
     c06:	05d4                	addi	a3,sp,708
     c08:	0000                	unimp
     c0a:	6204                	ld	s1,0(a2)
     c0c:	6675                	lui	a2,0x1d
     c0e:	5f00                	lw	s0,56(a4)
     c10:	0001241b          	0x1241b
     c14:	fe00                	sd	s0,56(a2)
     c16:	0005                	c.nop	1
     c18:	0500                	addi	s0,sp,640
     c1a:	024e                	slli	tp,tp,0x13
     c1c:	0000                	unimp
     c1e:	275f 0043 0000      	0x43275f
     c24:	0000063b          	addw	a2,zero,zero
     c28:	3402                	fld	fs0,32(sp)
     c2a:	00000103          	lb	sp,0(zero) # 0 <main-0x100b0>
     c2e:	0000                	unimp
     c30:	fb00                	sd	s0,48(a4)
     c32:	000a                	c.slli	zero,0x2
     c34:	0100                	addi	s0,sp,128
     c36:	5a01                	li	s4,-32
     c38:	0802                	c.slli64	a6
     c3a:	0152                	slli	sp,sp,0x14
     c3c:	5c01                	li	s8,-32
     c3e:	5b01a303          	lw	t1,1456(gp) # 127b4 <__global_pointer$+0x5b0>
     c42:	0101                	addi	sp,sp,0
     c44:	035d                	addi	t1,t1,23
     c46:	015c01a3          	sb	s5,3(s8)
     c4a:	5e01                	li	t3,-32
     c4c:	3001                	0x3001
     c4e:	0101                	addi	sp,sp,0
     c50:	015f 0130 6001      	0x60010130015f
     c56:	3001                	0x3001
     c58:	0101                	addi	sp,sp,0
     c5a:	0161                	addi	sp,sp,24
     c5c:	0030                	addi	a2,sp,8
     c5e:	0300                	addi	s0,sp,384
     c60:	00000157          	0x157
     c64:	5801                	li	a6,-32
     c66:	6405                	lui	s0,0x1
     c68:	0000                	unimp
     c6a:	f800                	sd	s0,48(s0)
     c6c:	0102                	c.slli64	sp
     c6e:	0000                	unimp
     c70:	0000                	unimp
     c72:	2200                	fld	fs0,0(a2)
     c74:	0000                	unimp
     c76:	0000                	unimp
     c78:	0000                	unimp
     c7a:	0100                	addi	s0,sp,128
     c7c:	c19c                	sw	a5,0(a1)
     c7e:	05000007          	0x5000007
     c82:	0221                	addi	tp,tp,8
     c84:	0000                	unimp
     c86:	1658                	addi	a4,sp,804
     c88:	013d                	addi	sp,sp,15
     c8a:	0000                	unimp
     c8c:	0678                	addi	a4,sp,780
     c8e:	0000                	unimp
     c90:	c905                	beqz	a0,cc0 <main-0xf3f0>
     c92:	0001                	nop
     c94:	5800                	lw	s0,48(s0)
     c96:	6424                	ld	s1,72(s0)
     c98:	0000                	unimp
     c9a:	b500                	fsd	fs0,40(a0)
     c9c:	0006                	c.slli	zero,0x1
     c9e:	0200                	addi	s0,sp,256
     ca0:	0312                	slli	t1,t1,0x4
     ca2:	0001                	nop
     ca4:	0000                	unimp
     ca6:	0000                	unimp
     ca8:	00000afb          	0xafb
     cac:	0101                	addi	sp,sp,0
     cae:	025a                	slli	tp,tp,0x16
     cb0:	5108                	lw	a0,32(a0)
     cb2:	0101                	addi	sp,sp,0
     cb4:	01a3035b          	0x1a3035b
     cb8:	015a                	slli	sp,sp,0x16
     cba:	5d01                	li	s10,-32
     cbc:	3001                	0x3001
     cbe:	0101                	addi	sp,sp,0
     cc0:	015e                	slli	sp,sp,0x17
     cc2:	0130                	addi	a2,sp,136
     cc4:	5f01                	li	t5,-32
     cc6:	3001                	0x3001
     cc8:	0101                	addi	sp,sp,0
     cca:	0160                	addi	s0,sp,140
     ccc:	0130                	addi	a2,sp,136
     cce:	6101                	addi	sp,sp,0
     cd0:	3001                	0x3001
     cd2:	0000                	unimp
     cd4:	00007903          	0x7903
     cd8:	0100                	addi	s0,sp,128
     cda:	0550                	addi	a2,sp,644
     cdc:	0064                	addi	s1,sp,12
     cde:	0000                	unimp
     ce0:	02d6                	slli	t0,t0,0x15
     ce2:	0001                	nop
     ce4:	0000                	unimp
     ce6:	0000                	unimp
     ce8:	0022                	c.slli	zero,0x8
     cea:	0000                	unimp
     cec:	0000                	unimp
     cee:	0000                	unimp
     cf0:	9c01                	subw	s0,s0,s0
     cf2:	083d                	addi	a6,a6,15
     cf4:	0000                	unimp
     cf6:	5c05                	li	s8,-31
     cf8:	0002                	c.slli64	zero
     cfa:	5000                	lw	s0,32(s0)
     cfc:	3d16                	fld	fs10,352(sp)
     cfe:	0001                	nop
     d00:	df00                	sw	s0,56(a4)
     d02:	0006                	c.slli	zero,0x1
     d04:	0500                	addi	s0,sp,640
     d06:	0152                	slli	sp,sp,0x14
     d08:	0000                	unimp
     d0a:	2250                	fld	fa2,128(a2)
     d0c:	012c                	addi	a1,sp,136
     d0e:	0000                	unimp
     d10:	071c                	addi	a5,sp,896
     d12:	0000                	unimp
     d14:	f002                	sd	zero,32(sp)
     d16:	0102                	c.slli64	sp
     d18:	0000                	unimp
     d1a:	0000                	unimp
     d1c:	fb00                	sd	s0,48(a4)
     d1e:	000a                	c.slli	zero,0x2
     d20:	0100                	addi	s0,sp,128
     d22:	5a01                	li	s4,-32
     d24:	0802                	c.slli64	a6
     d26:	015e                	slli	sp,sp,0x17
     d28:	5b01                	li	s6,-32
     d2a:	5a01a303          	lw	t1,1440(gp) # 127a4 <__global_pointer$+0x5a0>
     d2e:	0101                	addi	sp,sp,0
     d30:	035c                	addi	a5,sp,388
     d32:	015b01a3          	sb	s5,3(s6)
     d36:	5d01                	li	s10,-32
     d38:	3001                	0x3001
     d3a:	0101                	addi	sp,sp,0
     d3c:	015e                	slli	sp,sp,0x17
     d3e:	0130                	addi	a2,sp,136
     d40:	5f01                	li	t5,-32
     d42:	3001                	0x3001
     d44:	0101                	addi	sp,sp,0
     d46:	0160                	addi	s0,sp,140
     d48:	0130                	addi	a2,sp,136
     d4a:	6101                	addi	sp,sp,0
     d4c:	3001                	0x3001
     d4e:	0000                	unimp
     d50:	1b18                	addi	a4,sp,432
     d52:	0002                	c.slli64	zero
     d54:	0100                	addi	s0,sp,128
     d56:	064c                	addi	a1,sp,772
     d58:	02b6                	slli	t0,t0,0xd
     d5a:	0001                	nop
     d5c:	0000                	unimp
     d5e:	0000                	unimp
     d60:	0020                	addi	s0,sp,8
     d62:	0000                	unimp
     d64:	0000                	unimp
     d66:	0000                	unimp
     d68:	9c01                	subw	s0,s0,s0
     d6a:	00000893          	li	a7,0
     d6e:	d002                	sw	zero,32(sp)
     d70:	0102                	c.slli64	sp
     d72:	0000                	unimp
     d74:	0000                	unimp
     d76:	fb00                	sd	s0,48(a4)
     d78:	000a                	c.slli	zero,0x2
     d7a:	0100                	addi	s0,sp,128
     d7c:	5a01                	li	s4,-32
     d7e:	0802                	c.slli64	a6
     d80:	0145                	addi	sp,sp,17
     d82:	5b01                	li	s6,-32
     d84:	3001                	0x3001
     d86:	0101                	addi	sp,sp,0
     d88:	015c                	addi	a5,sp,132
     d8a:	0130                	addi	a2,sp,136
     d8c:	5d01                	li	s10,-32
     d8e:	3001                	0x3001
     d90:	0101                	addi	sp,sp,0
     d92:	015e                	slli	sp,sp,0x17
     d94:	0130                	addi	a2,sp,136
     d96:	5f01                	li	t5,-32
     d98:	3001                	0x3001
     d9a:	0101                	addi	sp,sp,0
     d9c:	0160                	addi	s0,sp,140
     d9e:	0130                	addi	a2,sp,136
     da0:	6101                	addi	sp,sp,0
     da2:	3001                	0x3001
     da4:	0000                	unimp
     da6:	00007e03          	0x7e03
     daa:	0600                	addi	s0,sp,768
     dac:	095d                	addi	s2,s2,23
     dae:	0131                	addi	sp,sp,12
     db0:	0000                	unimp
     db2:	0294                	addi	a3,sp,320
     db4:	0001                	nop
     db6:	0000                	unimp
     db8:	0000                	unimp
     dba:	0022                	c.slli	zero,0x8
     dbc:	0000                	unimp
     dbe:	0000                	unimp
     dc0:	0000                	unimp
     dc2:	9c01                	subw	s0,s0,s0
     dc4:	08ed                	addi	a7,a7,27
     dc6:	0000                	unimp
     dc8:	ae02                	fsd	ft0,280(sp)
     dca:	0102                	c.slli64	sp
     dcc:	0000                	unimp
     dce:	0000                	unimp
     dd0:	fb00                	sd	s0,48(a4)
     dd2:	000a                	c.slli	zero,0x2
     dd4:	0100                	addi	s0,sp,128
     dd6:	5a01                	li	s4,-32
     dd8:	0802                	c.slli64	a6
     dda:	0144                	addi	s1,sp,132
     ddc:	5b01                	li	s6,-32
     dde:	3001                	0x3001
     de0:	0101                	addi	sp,sp,0
     de2:	015c                	addi	a5,sp,132
     de4:	0130                	addi	a2,sp,136
     de6:	5d01                	li	s10,-32
     de8:	3001                	0x3001
     dea:	0101                	addi	sp,sp,0
     dec:	015e                	slli	sp,sp,0x17
     dee:	0130                	addi	a2,sp,136
     df0:	5f01                	li	t5,-32
     df2:	3001                	0x3001
     df4:	0101                	addi	sp,sp,0
     df6:	0160                	addi	s0,sp,140
     df8:	0130                	addi	a2,sp,136
     dfa:	6101                	addi	sp,sp,0
     dfc:	3001                	0x3001
     dfe:	0000                	unimp
     e00:	9a19                	andi	a2,a2,-26
     e02:	0001                	nop
     e04:	0100                	addi	s0,sp,128
     e06:	0274063f 00000001 	0x10274063f
     e0e:	0000                	unimp
     e10:	0020                	addi	s0,sp,8
     e12:	0000                	unimp
     e14:	0000                	unimp
     e16:	0000                	unimp
     e18:	9c01                	subw	s0,s0,s0
     e1a:	00000953          	fadd.s	fs2,ft0,ft0,rne
     e1e:	7604                	ld	s1,40(a2)
     e20:	0061                	c.nop	24
     e22:	0124173f 07590000 	0x75900000124173f
     e2a:	0000                	unimp
     e2c:	8e02                	jr	t3
     e2e:	0102                	c.slli64	sp
     e30:	0000                	unimp
     e32:	0000                	unimp
     e34:	fb00                	sd	s0,48(a4)
     e36:	000a                	c.slli	zero,0x2
     e38:	0100                	addi	s0,sp,128
     e3a:	5a01                	li	s4,-32
     e3c:	0802                	c.slli64	a6
     e3e:	5b010143          	fmadd.d	ft2,ft2,fa6,fa1,rne
     e42:	5a01a303          	lw	t1,1440(gp) # 127a4 <__global_pointer$+0x5a0>
     e46:	0101                	addi	sp,sp,0
     e48:	015c                	addi	a5,sp,132
     e4a:	0130                	addi	a2,sp,136
     e4c:	5d01                	li	s10,-32
     e4e:	3001                	0x3001
     e50:	0101                	addi	sp,sp,0
     e52:	015e                	slli	sp,sp,0x17
     e54:	0130                	addi	a2,sp,136
     e56:	5f01                	li	t5,-32
     e58:	3001                	0x3001
     e5a:	0101                	addi	sp,sp,0
     e5c:	0160                	addi	s0,sp,140
     e5e:	0130                	addi	a2,sp,136
     e60:	6101                	addi	sp,sp,0
     e62:	3001                	0x3001
     e64:	0000                	unimp
     e66:	1d1a                	slli	s10,s10,0x26
     e68:	0000                	unimp
     e6a:	0100                	addi	s0,sp,128
     e6c:	0738                	addi	a4,sp,904
     e6e:	0124                	addi	s1,sp,136
     e70:	0000                	unimp
     e72:	0254                	addi	a3,sp,260
     e74:	0001                	nop
     e76:	0000                	unimp
     e78:	0000                	unimp
     e7a:	0020                	addi	s0,sp,8
     e7c:	0000                	unimp
     e7e:	0000                	unimp
     e80:	0000                	unimp
     e82:	9c01                	subw	s0,s0,s0
     e84:	09ad                	addi	s3,s3,11
     e86:	0000                	unimp
     e88:	6e02                	ld	t3,0(sp)
     e8a:	0102                	c.slli64	sp
     e8c:	0000                	unimp
     e8e:	0000                	unimp
     e90:	fb00                	sd	s0,48(a4)
     e92:	000a                	c.slli	zero,0x2
     e94:	0100                	addi	s0,sp,128
     e96:	5a01                	li	s4,-32
     e98:	0802                	c.slli64	a6
     e9a:	0142                	slli	sp,sp,0x10
     e9c:	5b01                	li	s6,-32
     e9e:	3001                	0x3001
     ea0:	0101                	addi	sp,sp,0
     ea2:	015c                	addi	a5,sp,132
     ea4:	0130                	addi	a2,sp,136
     ea6:	5d01                	li	s10,-32
     ea8:	3001                	0x3001
     eaa:	0101                	addi	sp,sp,0
     eac:	015e                	slli	sp,sp,0x17
     eae:	0130                	addi	a2,sp,136
     eb0:	5f01                	li	t5,-32
     eb2:	3001                	0x3001
     eb4:	0101                	addi	sp,sp,0
     eb6:	0160                	addi	s0,sp,140
     eb8:	0130                	addi	a2,sp,136
     eba:	6101                	addi	sp,sp,0
     ebc:	3001                	0x3001
     ebe:	0000                	unimp
     ec0:	00015c03          	lhu	s8,0(sp)
     ec4:	0100                	addi	s0,sp,128
     ec6:	0531                	addi	a0,a0,12
     ec8:	0064                	addi	s1,sp,12
     eca:	0000                	unimp
     ecc:	0232                	slli	tp,tp,0xc
     ece:	0001                	nop
     ed0:	0000                	unimp
     ed2:	0000                	unimp
     ed4:	0022                	c.slli	zero,0x8
     ed6:	0000                	unimp
     ed8:	0000                	unimp
     eda:	0000                	unimp
     edc:	9c01                	subw	s0,s0,s0
     ede:	0a11                	addi	s4,s4,4
     ee0:	0000                	unimp
     ee2:	d705                	beqz	a4,e0a <main-0xf2a6>
     ee4:	0001                	nop
     ee6:	3100                	fld	fs0,32(a0)
     ee8:	640e                	ld	s0,192(sp)
     eea:	0000                	unimp
     eec:	9600                	0x9600
     eee:	02000007          	0x2000007
     ef2:	024c                	addi	a1,sp,260
     ef4:	0001                	nop
     ef6:	0000                	unimp
     ef8:	0000                	unimp
     efa:	00000afb          	0xafb
     efe:	0101                	addi	sp,sp,0
     f00:	025a                	slli	tp,tp,0x16
     f02:	4108                	lw	a0,0(a0)
     f04:	0101                	addi	sp,sp,0
     f06:	015c                	addi	a5,sp,132
     f08:	0130                	addi	a2,sp,136
     f0a:	5d01                	li	s10,-32
     f0c:	3001                	0x3001
     f0e:	0101                	addi	sp,sp,0
     f10:	015e                	slli	sp,sp,0x17
     f12:	0130                	addi	a2,sp,136
     f14:	5f01                	li	t5,-32
     f16:	3001                	0x3001
     f18:	0101                	addi	sp,sp,0
     f1a:	0160                	addi	s0,sp,140
     f1c:	0130                	addi	a2,sp,136
     f1e:	6101                	addi	sp,sp,0
     f20:	3001                	0x3001
     f22:	0000                	unimp
     f24:	00016c03          	lwu	s8,0(sp)
     f28:	0100                	addi	s0,sp,128
     f2a:	0520                	addi	s0,sp,648
     f2c:	0064                	addi	s1,sp,12
     f2e:	0000                	unimp
     f30:	01e0                	addi	s0,sp,204
     f32:	0001                	nop
     f34:	0000                	unimp
     f36:	0000                	unimp
     f38:	0052                	c.slli	zero,0x14
     f3a:	0000                	unimp
     f3c:	0000                	unimp
     f3e:	0000                	unimp
     f40:	9c01                	subw	s0,s0,s0
     f42:	00000aeb          	0xaeb
     f46:	7304                	ld	s1,32(a4)
     f48:	2000                	fld	fs0,0(s0)
     f4a:	3d18                	fld	fa4,56(a0)
     f4c:	0001                	nop
     f4e:	c000                	sw	s0,0(s0)
     f50:	1b000007          	0x1b000007
     f54:	760c                	ld	a1,40(a2)
     f56:	006c                	addi	a1,sp,12
     f58:	0b21                	addi	s6,s6,8
     f5a:	0158                	addi	a4,sp,132
     f5c:	0000                	unimp
     f5e:	7fa89103          	lh	sp,2042(a7)
     f62:	6f0c                	ld	a1,24(a4)
     f64:	7475                	lui	s0,0xffffd
     f66:	2400                	fld	fs0,8(s0)
     f68:	eb08                	sd	a0,16(a4)
     f6a:	000a                	c.slli	zero,0x2
     f6c:	0300                	addi	s0,sp,384
     f6e:	a891                	j	fc2 <main-0xf0ee>
     f70:	0d7d                	addi	s10,s10,31
     f72:	6572                	ld	a0,280(sp)
     f74:	07250073          	0x7250073
     f78:	0064                	addi	s1,sp,12
     f7a:	0000                	unimp
     f7c:	07fd                	addi	a5,a5,31
     f7e:	0000                	unimp
     f80:	620d                	lui	tp,0x3
     f82:	6675                	lui	a2,0x1d
     f84:	2700                	fld	fs0,8(a4)
     f86:	00013d0f          	0x13d0f
     f8a:	2400                	fld	fs0,8(s0)
     f8c:	0008                	0x8
     f8e:	0d00                	addi	s0,sp,656
     f90:	006e                	c.slli	zero,0x1b
     f92:	0a28                	addi	a0,sp,280
     f94:	0079                	c.nop	30
     f96:	0000                	unimp
     f98:	0890                	addi	a2,sp,80
     f9a:	0000                	unimp
     f9c:	021c                	addi	a5,sp,256
     f9e:	0102                	c.slli64	sp
     fa0:	0000                	unimp
     fa2:	0000                	unimp
     fa4:	6400                	ld	s0,8(s0)
     fa6:	0001                	nop
     fa8:	b600                	fsd	fs0,40(a2)
     faa:	000a                	c.slli	zero,0x2
     fac:	0100                	addi	s0,sp,128
     fae:	5a01                	li	s4,-32
     fb0:	7da89103          	lh	sp,2010(a7)
     fb4:	0101                	addi	sp,sp,0
     fb6:	000a035b          	0xa035b
     fba:	0101                	addi	sp,sp,0
     fbc:	5c01                	li	s8,-32
     fbe:	5a01a303          	lw	t1,1440(gp) # 127a4 <__global_pointer$+0x5a0>
     fc2:	0101                	addi	sp,sp,0
     fc4:	025d                	addi	tp,tp,23
     fc6:	4891                	li	a7,4
     fc8:	0200                	addi	s0,sp,256
     fca:	0224                	addi	s1,sp,264
     fcc:	0001                	nop
     fce:	0000                	unimp
     fd0:	0000                	unimp
     fd2:	00000afb          	0xafb
     fd6:	0101                	addi	sp,sp,0
     fd8:	025a                	slli	tp,tp,0x16
     fda:	4008                	lw	a0,0(s0)
     fdc:	0101                	addi	sp,sp,0
     fde:	a891035b          	0xa891035b
     fe2:	017d                	addi	sp,sp,31
     fe4:	5d01                	li	s10,-32
     fe6:	3001                	0x3001
     fe8:	0101                	addi	sp,sp,0
     fea:	015e                	slli	sp,sp,0x17
     fec:	0130                	addi	a2,sp,136
     fee:	5f01                	li	t5,-32
     ff0:	3001                	0x3001
     ff2:	0101                	addi	sp,sp,0
     ff4:	0160                	addi	s0,sp,140
     ff6:	0130                	addi	a2,sp,136
     ff8:	6101                	addi	sp,sp,0
     ffa:	3001                	0x3001
     ffc:	0000                	unimp
     ffe:	c20e                	sw	gp,4(sp)
    1000:	0000                	unimp
    1002:	fb00                	sd	s0,48(a4)
    1004:	000a                	c.slli	zero,0x2
    1006:	0f00                	addi	s0,sp,912
    1008:	0085                	addi	ra,ra,1
    100a:	0000                	unimp
    100c:	00ff                	0xff
    100e:	bc1d                	j	a44 <main-0xf66c>
    1010:	0001                	nop
    1012:	0100                	addi	s0,sp,128
    1014:	080d                	addi	a6,a6,3
    1016:	00000043          	fmadd.s	ft0,ft0,ft0,ft0,rne
    101a:	01d2                	slli	gp,gp,0x14
    101c:	0001                	nop
    101e:	0000                	unimp
    1020:	0000                	unimp
    1022:	000e                	c.slli	zero,0x3
    1024:	0000                	unimp
    1026:	0000                	unimp
    1028:	0000                	unimp
    102a:	9c01                	subw	s0,s0,s0
    102c:	0905                	addi	s2,s2,1
    102e:	0002                	c.slli64	zero
    1030:	0d00                	addi	s0,sp,656
    1032:	431c                	lw	a5,0(a4)
    1034:	0000                	unimp
    1036:	a400                	fsd	fs0,8(s0)
    1038:	0008                	0x8
    103a:	0800                	addi	s0,sp,16
    103c:	3161                	addiw	sp,sp,-8
    103e:	0d00                	addi	s0,sp,656
    1040:	0000432b          	0x432b
    1044:	0100                	addi	s0,sp,128
    1046:	3261085b          	0x3261085b
    104a:	0d00                	addi	s0,sp,656
    104c:	4336                	lw	t1,76(sp)
    104e:	0000                	unimp
    1050:	0100                	addi	s0,sp,128
    1052:	085c                	addi	a5,sp,20
    1054:	3361                	addiw	t1,t1,-8
    1056:	0d00                	addi	s0,sp,656
    1058:	4341                	li	t1,16
    105a:	0000                	unimp
    105c:	0100                	addi	s0,sp,128
    105e:	085d                	addi	a6,a6,23
    1060:	3461                	addiw	s0,s0,-8
    1062:	0d00                	addi	s0,sp,656
    1064:	434c                	lw	a1,4(a4)
    1066:	0000                	unimp
    1068:	0100                	addi	s0,sp,128
    106a:	085e                	slli	a6,a6,0x17
    106c:	3561                	addiw	a0,a0,-8
    106e:	0d00                	addi	s0,sp,656
    1070:	00004357          	0x4357
    1074:	0100                	addi	s0,sp,128
    1076:	085f 3661 0d00      	0xd003661085f
    107c:	4362                	lw	t1,24(sp)
    107e:	0000                	unimp
    1080:	0100                	addi	s0,sp,128
    1082:	0860                	addi	s0,sp,28
    1084:	3761                	addiw	a4,a4,-8
    1086:	0e00                	addi	s0,sp,784
    1088:	4319                	li	t1,6
    108a:	0000                	unimp
    108c:	0100                	addi	s0,sp,128
    108e:	0c61                	addi	s8,s8,24
    1090:	6572                	ld	a0,280(sp)
    1092:	0074                	addi	a3,sp,12
    1094:	0064070f          	0x64070f
    1098:	0000                	unimp
    109a:	9102                	jalr	sp
    109c:	007c                	addi	a5,sp,12
    109e:	2200                	fld	fs0,0(a2)
    10a0:	0002                	c.slli64	zero
    10a2:	0500                	addi	s0,sp,640
    10a4:	0100                	addi	s0,sp,128
    10a6:	3808                	fld	fa0,48(s0)
    10a8:	0a000003          	lb	zero,160(zero) # a0 <main-0x10010>
    10ac:	00a6                	slli	ra,ra,0x9
    10ae:	0000                	unimp
    10b0:	470c                	lw	a1,8(a4)
    10b2:	0001                	nop
    10b4:	0000                	unimp
    10b6:	0000                	unimp
    10b8:	d400                	sw	s0,40(s0)
    10ba:	0104                	addi	s1,sp,128
    10bc:	0000                	unimp
    10be:	0000                	unimp
    10c0:	e200                	sd	s0,0(a2)
    10c2:	0001                	nop
    10c4:	0000                	unimp
    10c6:	0000                	unimp
    10c8:	d200                	sw	s0,32(a2)
    10ca:	0005                	c.nop	1
    10cc:	0300                	addi	s0,sp,384
    10ce:	0269                	addi	tp,tp,26
    10d0:	0000                	unimp
    10d2:	2802                	fld	fa6,0(sp)
    10d4:	00003a1b          	0x3a1b
    10d8:	0b00                	addi	s0,sp,400
    10da:	2a08                	fld	fa0,16(a2)
    10dc:	0002                	c.slli64	zero
    10de:	0300                	addi	s0,sp,384
    10e0:	0270                	addi	a2,sp,268
    10e2:	0000                	unimp
    10e4:	6302                	ld	t1,0(sp)
    10e6:	2e18                	fld	fa4,24(a2)
    10e8:	0000                	unimp
    10ea:	0100                	addi	s0,sp,128
    10ec:	0801                	addi	a6,a6,0
    10ee:	002a                	c.slli	zero,0xa
    10f0:	0000                	unimp
    10f2:	0201                	addi	tp,tp,0
    10f4:	00004507          	flq	fa0,0(zero) # 0 <main-0x100b0>
    10f8:	0100                	addi	s0,sp,128
    10fa:	0704                	addi	s1,sp,896
    10fc:	0094                	addi	a3,sp,64
    10fe:	0000                	unimp
    1100:	0801                	addi	a6,a6,0
    1102:	00008a07          	0x8a07
    1106:	0100                	addi	s0,sp,128
    1108:	0601                	addi	a2,a2,0
    110a:	002c                	addi	a1,sp,8
    110c:	0000                	unimp
    110e:	0201                	addi	tp,tp,0
    1110:	6505                	lui	a0,0x1
    1112:	0000                	unimp
    1114:	0300                	addi	s0,sp,384
    1116:	00000297          	auipc	t0,0x0
    111a:	82140b03          	lb	s6,-2015(s0) # ffffffffffffc821 <__global_pointer$+0xfffffffffffea61d>
    111e:	0000                	unimp
    1120:	0c00                	addi	s0,sp,528
    1122:	0504                	addi	s1,sp,640
    1124:	6e69                	lui	t3,0x1a
    1126:	0074                	addi	a3,sp,12
    1128:	0801                	addi	a6,a6,0
    112a:	0005                	c.nop	1
    112c:	0000                	unimp
    112e:	0300                	addi	s0,sp,384
    1130:	0000028b          	0x28b
    1134:	820d0e03          	lb	t3,-2016(s10)
    1138:	0000                	unimp
    113a:	0100                	addi	s0,sp,128
    113c:	0508                	addi	a0,sp,640
    113e:	0005                	c.nop	1
    1140:	0000                	unimp
    1142:	00018b03          	lb	s6,0(gp) # 12204 <__global_pointer$>
    1146:	0300                	addi	s0,sp,384
    1148:	1711                	addi	a4,a4,-28
    114a:	000000af          	0xaf
    114e:	0801                	addi	a6,a6,0
    1150:	00008f07          	0x8f07
    1154:	0100                	addi	s0,sp,128
    1156:	0801                	addi	a6,a6,0
    1158:	00000033          	add	zero,zero,zero
    115c:	b60d                	j	c7e <main-0xf432>
    115e:	0000                	unimp
    1160:	0e00                	addi	s0,sp,784
    1162:	000001eb          	0x1eb
    1166:	0b01                	addi	s6,s6,0
    1168:	00007607          	0x7607
    116c:	d400                	sw	s0,40(s0)
    116e:	0104                	addi	s1,sp,128
    1170:	0000                	unimp
    1172:	0000                	unimp
    1174:	e200                	sd	s0,0(a2)
    1176:	0001                	nop
    1178:	0000                	unimp
    117a:	0000                	unimp
    117c:	0100                	addi	s0,sp,128
    117e:	1b9c                	addi	a5,sp,496
    1180:	0002                	c.slli64	zero
    1182:	0400                	addi	s0,sp,512
    1184:	0074756f          	jal	a0,4898a <__global_pointer$+0x36786>
    1188:	00021b17          	auipc	s6,0x21
    118c:	da00                	sw	s0,48(a2)
    118e:	0008                	0x8
    1190:	0400                	addi	s0,sp,512
    1192:	006e                	c.slli	zero,0x1b
    1194:	0000a323          	sw	zero,6(ra)
    1198:	2d00                	fld	fs0,24(a0)
    119a:	0009                	c.nop	2
    119c:	0400                	addi	s0,sp,512
    119e:	20320073          	0x20320073
    11a2:	0002                	c.slli64	zero
    11a4:	7f00                	ld	s0,56(a4)
    11a6:	0009                	c.nop	2
    11a8:	0400                	addi	s0,sp,512
    11aa:	6c76                	ld	s8,344(sp)
    11ac:	3d00                	fld	fs0,56(a0)
    11ae:	0040                	addi	s0,sp,4
    11b0:	0000                	unimp
    11b2:	09a6                	slli	s3,s3,0x9
    11b4:	0000                	unimp
    11b6:	9005                	srli	s0,s0,0x21
    11b8:	0002                	c.slli64	zero
    11ba:	0c00                	addi	s0,sp,528
    11bc:	9008                	0x9008
    11be:	0000                	unimp
    11c0:	e400                	sd	s0,8(s0)
    11c2:	0009                	c.nop	2
    11c4:	0500                	addi	s0,sp,640
    11c6:	02a4                	addi	s1,sp,328
    11c8:	0000                	unimp
    11ca:	080d                	addi	a6,a6,3
    11cc:	0090                	addi	a2,sp,64
    11ce:	0000                	unimp
    11d0:	0ab8                	addi	a4,sp,344
    11d2:	0000                	unimp
    11d4:	7002                	0x7002
    11d6:	0e00736f          	jal	t1,82b6 <main-0x7dfa>
    11da:	a30a                	fsd	ft2,384(sp)
    11dc:	0000                	unimp
    11de:	8d00                	0x8d00
    11e0:	0600000b          	0x600000b
    11e4:	0504                	addi	s1,sp,640
    11e6:	0001                	nop
    11e8:	0000                	unimp
    11ea:	0000                	unimp
    11ec:	0064                	addi	s1,sp,12
    11ee:	0000                	unimp
    11f0:	0000                	unimp
    11f2:	0000                	unimp
    11f4:	0000018f          	0x18f
    11f8:	6e02                	ld	t3,0(sp)
    11fa:	6d75                	lui	s10,0x1d
    11fc:	1b00                	addi	s0,sp,432
    11fe:	9c10                	0x9c10
    1200:	0000                	unimp
    1202:	4400                	lw	s0,8(s0)
    1204:	000d                	c.nop	3
    1206:	0700                	addi	s0,sp,896
    1208:	0000003b          	addw	zero,zero,zero
    120c:	6902                	ld	s2,0(sp)
    120e:	1c00                	addi	s0,sp,560
    1210:	8214                	0x8214
    1212:	0000                	unimp
    1214:	6b00                	ld	s0,16(a4)
    1216:	000d                	c.nop	3
    1218:	0700                	addi	s0,sp,896
    121a:	005e                	c.slli	zero,0x17
    121c:	0000                	unimp
    121e:	6402                	ld	s0,0(sp)
    1220:	1d00                	addi	s0,sp,688
    1222:	8211                	srli	a2,a2,0x4
    1224:	0000                	unimp
    1226:	a500                	fsd	fs0,8(a0)
    1228:	000d                	c.nop	3
    122a:	0000                	unimp
    122c:	0000                	unimp
    122e:	6806                	ld	a6,64(sp)
    1230:	0105                	addi	sp,sp,1
    1232:	0000                	unimp
    1234:	0000                	unimp
    1236:	8800                	0x8800
    1238:	0000                	unimp
    123a:	0000                	unimp
    123c:	0000                	unimp
    123e:	fa00                	sd	s0,48(a2)
    1240:	0001                	nop
    1242:	0200                	addi	s0,sp,256
    1244:	756e                	ld	a0,248(sp)
    1246:	006d                	c.nop	27
    1248:	1025                	c.nop	-23
    124a:	009c                	addi	a5,sp,64
    124c:	0000                	unimp
    124e:	0e00                	addi	s0,sp,784
    1250:	0000                	unimp
    1252:	9d05                	subw	a0,a0,s1
    1254:	0002                	c.slli64	zero
    1256:	2a00                	fld	fs0,16(a2)
    1258:	9c10                	0x9c10
    125a:	0000                	unimp
    125c:	2700                	fld	fs0,8(a4)
    125e:	000e                	c.slli	zero,0x3
    1260:	0f00                	addi	s0,sp,912
    1262:	0092                	slli	ra,ra,0x4
    1264:	0000                	unimp
    1266:	01da                	slli	gp,gp,0x16
    1268:	0000                	unimp
    126a:	6e02                	ld	t3,0(sp)
    126c:	006e                	c.slli	zero,0x1b
    126e:	009c152b          	0x9c152b
    1272:	0000                	unimp
    1274:	00000e4f          	fnmadd.s	ft8,ft0,ft0,ft0,rne
    1278:	0800                	addi	s0,sp,16
    127a:	05b8                	addi	a4,sp,712
    127c:	0001                	nop
    127e:	0000                	unimp
    1280:	0000                	unimp
    1282:	0030                	addi	a2,sp,8
    1284:	0000                	unimp
    1286:	0000                	unimp
    1288:	0000                	unimp
    128a:	6902                	ld	s2,0(sp)
    128c:	2d00                	fld	fs0,24(a0)
    128e:	8214                	0x8214
    1290:	0000                	unimp
    1292:	7600                	ld	s0,40(a2)
    1294:	000e                	c.slli	zero,0x3
    1296:	0000                	unimp
    1298:	0800                	addi	s0,sp,16
    129a:	05f0                	addi	a2,sp,716
    129c:	0001                	nop
    129e:	0000                	unimp
    12a0:	0000                	unimp
    12a2:	002e                	c.slli	zero,0xb
    12a4:	0000                	unimp
    12a6:	0000                	unimp
    12a8:	0000                	unimp
    12aa:	7302                	ld	t1,32(sp)
    12ac:	0032                	c.slli	zero,0xc
    12ae:	02201737          	lui	a4,0x2201
    12b2:	0000                	unimp
    12b4:	0e9f 0000 0000      	0xe9f
    12ba:	b609                	j	dbc <main-0xf2f4>
    12bc:	0000                	unimp
    12be:	0900                	addi	s0,sp,144
    12c0:	00bd                	addi	ra,ra,15
    12c2:	0000                	unimp
    12c4:	e100                	sd	s0,0(a0)
    12c6:	0004                	0x4
    12c8:	0500                	addi	s0,sp,640
    12ca:	0100                	addi	s0,sp,128
    12cc:	0308                	addi	a0,sp,384
    12ce:	0004                	0x4
    12d0:	0f00                	addi	s0,sp,912
    12d2:	00a6                	slli	ra,ra,0x9
    12d4:	0000                	unimp
    12d6:	570c                	lw	a1,40(a4)
    12d8:	0001                	nop
    12da:	0000                	unimp
    12dc:	0000                	unimp
    12de:	b600                	fsd	fs0,40(a2)
    12e0:	0106                	slli	sp,sp,0x1
    12e2:	0000                	unimp
    12e4:	0000                	unimp
    12e6:	4000                	lw	s0,0(s0)
    12e8:	0002                	c.slli64	zero
    12ea:	0000                	unimp
    12ec:	0000                	unimp
    12ee:	db00                	sw	s0,48(a4)
    12f0:	0400000b          	0x400000b
    12f4:	0508                	addi	a0,sp,640
    12f6:	0005                	c.nop	1
    12f8:	0000                	unimp
    12fa:	8b09                	andi	a4,a4,2
    12fc:	0001                	nop
    12fe:	0200                	addi	s0,sp,256
    1300:	17d1                	addi	a5,a5,-12
    1302:	0041                	c.nop	16
    1304:	0000                	unimp
    1306:	0804                	addi	s1,sp,16
    1308:	00008f07          	0x8f07
    130c:	1000                	addi	s0,sp,32
    130e:	0504                	addi	s1,sp,640
    1310:	6e69                	lui	t3,0x1a
    1312:	0074                	addi	a3,sp,12
    1314:	0104                	addi	s1,sp,128
    1316:	2c06                	fld	fs8,64(sp)
    1318:	0000                	unimp
    131a:	0400                	addi	s0,sp,512
    131c:	0801                	addi	a6,a6,0
    131e:	002a                	c.slli	zero,0xa
    1320:	0000                	unimp
    1322:	0204                	addi	s1,sp,256
    1324:	6505                	lui	a0,0x1
    1326:	0000                	unimp
    1328:	0400                	addi	s0,sp,512
    132a:	0702                	c.slli64	a4
    132c:	0045                	c.nop	17
    132e:	0000                	unimp
    1330:	0404                	addi	s1,sp,512
    1332:	00009407          	0x9407
    1336:	0900                	addi	s0,sp,144
    1338:	02fe                	slli	t0,t0,0x1f
    133a:	0000                	unimp
    133c:	411ae803          	lwu	a6,1041(s5)
    1340:	0000                	unimp
    1342:	0400                	addi	s0,sp,512
    1344:	0801                	addi	a6,a6,0
    1346:	00000033          	add	zero,zero,zero
    134a:	7e11                	lui	t3,0xfffe4
    134c:	0000                	unimp
    134e:	0900                	addi	s0,sp,144
    1350:	0300                	addi	s0,sp,384
    1352:	0000                	unimp
    1354:	5204                	lw	s1,32(a2)
    1356:	7215                	lui	tp,0xfffe5
    1358:	0000                	unimp
    135a:	0200                	addi	s0,sp,256
    135c:	02e0                	addi	s0,sp,332
    135e:	0000                	unimp
    1360:	078e                	slli	a5,a5,0x3
    1362:	000000eb          	0xeb
    1366:	08ca                	slli	a7,a7,0x12
    1368:	0001                	nop
    136a:	0000                	unimp
    136c:	0000                	unimp
    136e:	002c                	addi	a1,sp,8
    1370:	0000                	unimp
    1372:	0000                	unimp
    1374:	0000                	unimp
    1376:	9c01                	subw	s0,s0,s0
    1378:	000000eb          	0xeb
    137c:	7301                	lui	t1,0xfffe0
    137e:	8e00                	0x8e00
    1380:	eb18                	sd	a4,16(a4)
    1382:	0000                	unimp
    1384:	bf00                	fsd	fs0,56(a4)
    1386:	000e                	c.slli	zero,0x3
    1388:	0100                	addi	s0,sp,128
    138a:	0074                	addi	a3,sp,12
    138c:	278e                	fld	fa5,192(sp)
    138e:	00f0                	addi	a2,sp,76
    1390:	0000                	unimp
    1392:	0f1f 0000 6e01      	0x6e0100000f1f
    1398:	8e00                	0x8e00
    139a:	482e                	lw	a6,200(sp)
    139c:	0000                	unimp
    139e:	6c00                	ld	s0,24(s0)
    13a0:	0700000f          	fence	orw,unknown
    13a4:	8f00736f          	jal	t1,fffffffffff08494 <__global_pointer$+0xffffffffffef6290>
    13a8:	eb09                	bnez	a4,13ba <main-0xecf6>
    13aa:	0000                	unimp
    13ac:	0100                	addi	s0,sp,128
    13ae:	005a                	c.slli	zero,0x16
    13b0:	7e08                	ld	a0,56(a2)
    13b2:	0000                	unimp
    13b4:	0800                	addi	s0,sp,16
    13b6:	0085                	addi	ra,ra,1
    13b8:	0000                	unimp
    13ba:	c902                	sw	zero,144(sp)
    13bc:	0002                	c.slli64	zero
    13be:	7d00                	ld	s0,56(a0)
    13c0:	00015a07          	0x15a07
    13c4:	8400                	0x8400
    13c6:	0108                	addi	a0,sp,128
    13c8:	0000                	unimp
    13ca:	0000                	unimp
    13cc:	4600                	lw	s0,8(a2)
    13ce:	0000                	unimp
    13d0:	0000                	unimp
    13d2:	0000                	unimp
    13d4:	0100                	addi	s0,sp,128
    13d6:	5a9c                	lw	a5,48(a3)
    13d8:	0001                	nop
    13da:	0600                	addi	s0,sp,768
    13dc:	7364                	ld	s1,224(a4)
    13de:	0074                	addi	a3,sp,12
    13e0:	157d                	addi	a0,a0,-1
    13e2:	015a                	slli	sp,sp,0x16
    13e4:	0000                	unimp
    13e6:	5a01                	li	s4,-32
    13e8:	7301                	lui	t1,0xfffe0
    13ea:	6372                	ld	t1,280(sp)
    13ec:	7d00                	ld	s0,56(a0)
    13ee:	5c26                	lw	s8,104(sp)
    13f0:	0001                	nop
    13f2:	9300                	0x9300
    13f4:	0100000f          	pause
    13f8:	006e                	c.slli	zero,0x1b
    13fa:	327d                	addiw	tp,tp,-1
    13fc:	0035                	c.nop	13
    13fe:	0000                	unimp
    1400:	0fd0                	addi	a2,sp,980
    1402:	0000                	unimp
    1404:	7e007303          	0x7e007303
    1408:	0000f00f          	0xf00f
    140c:	6900                	ld	s0,16(a0)
    140e:	0010                	0x10
    1410:	0300                	addi	s0,sp,384
    1412:	0064                	addi	s1,sp,12
    1414:	097f                	0x97f
    1416:	000000eb          	0xeb
    141a:	10b8                	addi	a4,sp,104
    141c:	0000                	unimp
    141e:	1200                	addi	s0,sp,288
    1420:	0808                	addi	a0,sp,16
    1422:	0161                	addi	sp,sp,24
    1424:	0000                	unimp
    1426:	02c40213          	addi	tp,s0,44
    142a:	0000                	unimp
    142c:	066a                	slli	a2,a2,0x1a
    142e:	002e                	c.slli	zero,0xb
    1430:	0000                	unimp
    1432:	0830                	addi	a2,sp,24
    1434:	0001                	nop
    1436:	0000                	unimp
    1438:	0000                	unimp
    143a:	0054                	addi	a3,sp,4
    143c:	0000                	unimp
    143e:	0000                	unimp
    1440:	0000                	unimp
    1442:	9c01                	subw	s0,s0,s0
    1444:	01b1                	addi	gp,gp,12
    1446:	0000                	unimp
    1448:	7301                	lui	t1,0xfffe0
    144a:	7274                	ld	a3,224(a2)
    144c:	6a00                	ld	s0,16(a2)
    144e:	0000f017          	auipc	zero,0xf
    1452:	1a00                	addi	s0,sp,304
    1454:	0011                	c.nop	4
    1456:	0300                	addi	s0,sp,384
    1458:	6572                	ld	a0,280(sp)
    145a:	086b0073          	0x86b0073
    145e:	002e                	c.slli	zero,0xb
    1460:	0000                	unimp
    1462:	1141                	addi	sp,sp,-16
    1464:	0000                	unimp
    1466:	f90a                	sd	sp,176(sp)
    1468:	0002                	c.slli64	zero
    146a:	6c00                	ld	s0,24(s0)
    146c:	00004807          	flq	fa6,0(zero) # 0 <main-0x100b0>
    1470:	8f00                	0x8f00
    1472:	0011                	c.nop	4
    1474:	0000                	unimp
    1476:	eb02                	sd	zero,400(sp)
    1478:	0002                	c.slli64	zero
    147a:	6500                	ld	s0,8(a0)
    147c:	0000eb07          	0xeb07
    1480:	0c00                	addi	s0,sp,528
    1482:	0108                	addi	a0,sp,128
    1484:	0000                	unimp
    1486:	0000                	unimp
    1488:	2400                	fld	fs0,8(s0)
    148a:	0000                	unimp
    148c:	0000                	unimp
    148e:	0000                	unimp
    1490:	0100                	addi	s0,sp,128
    1492:	1d9c                	addi	a5,sp,752
    1494:	0002                	c.slli64	zero
    1496:	0100                	addi	s0,sp,128
    1498:	7364                	ld	s1,224(a4)
    149a:	0074                	addi	a3,sp,12
    149c:	1465                	addi	s0,s0,-7
    149e:	000000eb          	0xeb
    14a2:	11ca                	slli	gp,gp,0x32
    14a4:	0000                	unimp
    14a6:	7301                	lui	t1,0xfffe0
    14a8:	6372                	ld	t1,280(sp)
    14aa:	6500                	ld	s0,8(a0)
    14ac:	f025                	bnez	s0,140c <main-0xeca4>
    14ae:	0000                	unimp
    14b0:	0400                	addi	s0,sp,512
    14b2:	0012                	c.slli	zero,0x4
    14b4:	0c00                	addi	s0,sp,528
    14b6:	081c                	addi	a5,sp,16
    14b8:	0001                	nop
    14ba:	0000                	unimp
    14bc:	0000                	unimp
    14be:	000003b3          	add	t2,zero,zero
    14c2:	0208                	addi	a0,sp,256
    14c4:	0000                	unimp
    14c6:	0105                	addi	sp,sp,1
    14c8:	025a                	slli	tp,tp,0x16
    14ca:	0078                	addi	a4,sp,12
    14cc:	0d00                	addi	s0,sp,656
    14ce:	0824                	addi	s1,sp,24
    14d0:	0001                	nop
    14d2:	0000                	unimp
    14d4:	0000                	unimp
    14d6:	0311                	addi	t1,t1,4
    14d8:	0000                	unimp
    14da:	0105                	addi	sp,sp,1
    14dc:	0079025b          	0x79025b
    14e0:	0000                	unimp
    14e2:	8302                	jr	t1
    14e4:	0000                	unimp
    14e6:	4d00                	lw	s0,24(a0)
    14e8:	0000eb07          	0xeb07
    14ec:	8400                	0x8400
    14ee:	00000107          	0x107
    14f2:	0000                	unimp
    14f4:	8800                	0x8800
    14f6:	0000                	unimp
    14f8:	0000                	unimp
    14fa:	0000                	unimp
    14fc:	0100                	addi	s0,sp,128
    14fe:	c99c                	sw	a5,16(a1)
    1500:	0002                	c.slli64	zero
    1502:	0100                	addi	s0,sp,128
    1504:	00727473          	csrrci	s0,0x7,4
    1508:	144d                	addi	s0,s0,-13
    150a:	000000eb          	0xeb
    150e:	1241                	addi	tp,tp,-16
    1510:	0000                	unimp
    1512:	580e                	lw	a6,224(sp)
    1514:	0000                	unimp
    1516:	4d00                	lw	s0,24(a0)
    1518:	f025                	bnez	s0,1478 <main-0xec38>
    151a:	0000                	unimp
    151c:	6b00                	ld	s0,16(a4)
    151e:	0012                	c.slli	zero,0x4
    1520:	1400                	addi	s0,sp,544
    1522:	02d8                	addi	a4,sp,324
    1524:	0000                	unimp
    1526:	4e01                	li	t3,0
    1528:	eb10                	sd	a2,16(a4)
    152a:	0000                	unimp
    152c:	0900                	addi	s0,sp,144
    152e:	011a0803          	lb	a6,17(s4)
    1532:	0000                	unimp
    1534:	0000                	unimp
    1536:	0a00                	addi	s0,sp,272
    1538:	0000003f 00eb0952 	0xeb09520000003f
    1540:	0000                	unimp
    1542:	000012bb          	sllw	t0,zero,zero
    1546:	646e6503          	lwu	a0,1606(t3) # fffffffffffe4646 <__global_pointer$+0xfffffffffffd2442>
    154a:	5a00                	lw	s0,48(a2)
    154c:	eb09                	bnez	a4,155e <main-0xeb52>
    154e:	0000                	unimp
    1550:	f500                	sd	s0,40(a0)
    1552:	0012                	c.slli	zero,0x4
    1554:	0c00                	addi	s0,sp,528
    1556:	07b8                	addi	a4,sp,968
    1558:	0001                	nop
    155a:	0000                	unimp
    155c:	0000                	unimp
    155e:	02c9                	addi	t0,t0,18
    1560:	0000                	unimp
    1562:	02ae                	slli	t0,t0,0xb
    1564:	0000                	unimp
    1566:	0105                	addi	sp,sp,1
    1568:	025a                	slli	tp,tp,0x16
    156a:	01050083          	lb	ra,16(a0) # 1010 <main-0xf0a0>
    156e:	0079025b          	0x79025b
    1572:	0d00                	addi	s0,sp,656
    1574:	07ce                	slli	a5,a5,0x13
    1576:	0001                	nop
    1578:	0000                	unimp
    157a:	0000                	unimp
    157c:	02c9                	addi	t0,t0,18
    157e:	0000                	unimp
    1580:	0105                	addi	sp,sp,1
    1582:	025a                	slli	tp,tp,0x16
    1584:	01050083          	lb	ra,16(a0)
    1588:	0082025b          	0x82025b
    158c:	0000                	unimp
    158e:	d102                	sw	zero,160(sp)
    1590:	0002                	c.slli64	zero
    1592:	4100                	lw	s0,0(a0)
    1594:	0000eb07          	0xeb07
    1598:	6e00                	ld	s0,24(a2)
    159a:	00000107          	0x107
    159e:	0000                	unimp
    15a0:	1600                	addi	s0,sp,800
    15a2:	0000                	unimp
    15a4:	0000                	unimp
    15a6:	0000                	unimp
    15a8:	0100                	addi	s0,sp,128
    15aa:	119c                	addi	a5,sp,224
    15ac:	01000003          	lb	zero,16(zero) # 10 <main-0x100a0>
    15b0:	0070                	addi	a2,sp,12
    15b2:	1a41                	addi	s4,s4,-16
    15b4:	00f0                	addi	a2,sp,76
    15b6:	0000                	unimp
    15b8:	1344                	addi	s1,sp,420
    15ba:	0000                	unimp
    15bc:	6301                	0x6301
    15be:	0068                	addi	a0,sp,12
    15c0:	2141                	addiw	sp,sp,16
    15c2:	0048                	addi	a0,sp,4
    15c4:	0000                	unimp
    15c6:	0000136b          	0x136b
    15ca:	43006307          	0x43006307
    15ce:	00007e07          	0x7e07
    15d2:	0100                	addi	s0,sp,128
    15d4:	e402005b          	0xe402005b
    15d8:	0002                	c.slli64	zero
    15da:	3a00                	fld	fs0,48(a2)
    15dc:	0000eb07          	0xeb07
    15e0:	5c00                	lw	s0,56(s0)
    15e2:	00000107          	0x107
    15e6:	0000                	unimp
    15e8:	1200                	addi	s0,sp,288
    15ea:	0000                	unimp
    15ec:	0000                	unimp
    15ee:	0000                	unimp
    15f0:	0100                	addi	s0,sp,128
    15f2:	5b9c                	lw	a5,48(a5)
    15f4:	0b000003          	lb	zero,176(zero) # b0 <main-0x10000>
    15f8:	02b1                	addi	t0,t0,12
    15fa:	0000                	unimp
    15fc:	eb3a                	sd	a4,400(sp)
    15fe:	0000                	unimp
    1600:	0100                	addi	s0,sp,128
    1602:	015a                	slli	sp,sp,0x16
    1604:	00637273          	csrrci	tp,0x6,6
    1608:	263a                	fld	fa2,392(sp)
    160a:	00f0                	addi	a2,sp,76
    160c:	0000                	unimp
    160e:	1395                	addi	t2,t2,-27
    1610:	0000                	unimp
    1612:	3b006403          	lwu	s0,944(zero) # 3b0 <main-0xfd00>
    1616:	eb09                	bnez	a4,1628 <main-0xea88>
    1618:	0000                	unimp
    161a:	d100                	sw	s0,32(a0)
    161c:	00000013          	nop
    1620:	5e02                	lw	t3,32(sp)
    1622:	0000                	unimp
    1624:	2f00                	fld	fs0,24(a4)
    1626:	4805                	li	a6,1
    1628:	0000                	unimp
    162a:	4400                	lw	s0,8(s0)
    162c:	00000107          	0x107
    1630:	0000                	unimp
    1632:	1800                	addi	s0,sp,48
    1634:	0000                	unimp
    1636:	0000                	unimp
    1638:	0000                	unimp
    163a:	0100                	addi	s0,sp,128
    163c:	b39c                	fsd	fa5,32(a5)
    163e:	06000003          	lb	zero,96(zero) # 60 <main-0x10050>
    1642:	2f003173          	csrrc	sp,0x2f0,zero
    1646:	f018                	sd	a4,32(s0)
    1648:	0000                	unimp
    164a:	0400                	addi	s0,sp,512
    164c:	9f5a01a3          	sb	s5,-1565(s4)
    1650:	7306                	ld	t1,96(sp)
    1652:	0032                	c.slli	zero,0xc
    1654:	00f0282f          	amoadd.w	a6,a5,(zero)
    1658:	0000                	unimp
    165a:	a304                	fsd	fs1,0(a4)
    165c:	5b01                	li	s6,-32
    165e:	079f 3163 3000      	0x30003163079f
    1664:	5611                	li	a2,-28
    1666:	0000                	unimp
    1668:	0100                	addi	s0,sp,128
    166a:	075e                	slli	a4,a4,0x17
    166c:	30003263          	0x30003263
    1670:	5615                	li	a2,-27
    1672:	0000                	unimp
    1674:	0100                	addi	s0,sp,128
    1676:	005f f202 0002      	0x2f202005f
    167c:	2900                	fld	fs0,16(a0)
    167e:	3508                	fld	fa0,40(a0)
    1680:	0000                	unimp
    1682:	3200                	fld	fs0,32(a2)
    1684:	00000107          	0x107
    1688:	0000                	unimp
    168a:	1200                	addi	s0,sp,288
    168c:	0000                	unimp
    168e:	0000                	unimp
    1690:	0000                	unimp
    1692:	0100                	addi	s0,sp,128
    1694:	ef9c                	sd	a5,24(a5)
    1696:	01000003          	lb	zero,16(zero) # 10 <main-0x100a0>
    169a:	1b290073          	0x1b290073
    169e:	00f0                	addi	a2,sp,76
    16a0:	0000                	unimp
    16a2:	140d                	addi	s0,s0,-29
    16a4:	0000                	unimp
    16a6:	2a007003          	0x2a007003
    16aa:	0000f00f          	0xf00f
    16ae:	3700                	fld	fs0,40(a4)
    16b0:	0014                	0x14
    16b2:	0000                	unimp
    16b4:	bd02                	fsd	ft0,184(sp)
    16b6:	0002                	c.slli64	zero
    16b8:	1900                	addi	s0,sp,176
    16ba:	00015a07          	0x15a07
    16be:	ee00                	sd	s0,24(a2)
    16c0:	0106                	slli	sp,sp,0x1
    16c2:	0000                	unimp
    16c4:	0000                	unimp
    16c6:	4400                	lw	s0,8(s0)
    16c8:	0000                	unimp
    16ca:	0000                	unimp
    16cc:	0000                	unimp
    16ce:	0100                	addi	s0,sp,128
    16d0:	7e9c                	ld	a5,56(a3)
    16d2:	0004                	0x4
    16d4:	0b00                	addi	s0,sp,400
    16d6:	02b1                	addi	t0,t0,12
    16d8:	0000                	unimp
    16da:	5a19                	li	s4,-26
    16dc:	0001                	nop
    16de:	0100                	addi	s0,sp,128
    16e0:	0e5a                	slli	t3,t3,0x16
    16e2:	030a                	slli	t1,t1,0x2
    16e4:	0000                	unimp
    16e6:	1e19                	addi	t3,t3,-26
    16e8:	0048                	addi	a0,sp,4
    16ea:	0000                	unimp
    16ec:	145e                	slli	s0,s0,0x37
    16ee:	0000                	unimp
    16f0:	6c06                	ld	s8,64(sp)
    16f2:	6e65                	lui	t3,0x19
    16f4:	1900                	addi	s0,sp,176
    16f6:	0000352b          	0x352b
    16fa:	0100                	addi	s0,sp,128
    16fc:	155c                	addi	a5,sp,676
    16fe:	06f6                	slli	a3,a3,0x1d
    1700:	0001                	nop
    1702:	0000                	unimp
    1704:	0000                	unimp
    1706:	0028                	addi	a0,sp,8
    1708:	0000                	unimp
    170a:	0000                	unimp
    170c:	0000                	unimp
    170e:	046a                	slli	s0,s0,0x1a
    1710:	0000                	unimp
    1712:	ac0a                	fsd	ft2,24(sp)
    1714:	0002                	c.slli64	zero
    1716:	1b00                	addi	s0,sp,432
    1718:	00008a0f          	0x8a0f
    171c:	9b00                	0x9b00
    171e:	0014                	0x14
    1720:	0300                	addi	s0,sp,384
    1722:	0064                	addi	s1,sp,12
    1724:	1020                	addi	s0,sp,40
    1726:	047e                	slli	s0,s0,0x1f
    1728:	0000                	unimp
    172a:	14e8                	addi	a0,sp,620
    172c:	0000                	unimp
    172e:	1600                	addi	s0,sp,800
    1730:	00d2                	slli	ra,ra,0x14
    1732:	0000                	unimp
    1734:	23006403          	lwu	s0,560(zero) # 230 <main-0xfe80>
    1738:	0000eb0b          	0xeb0b
    173c:	2400                	fld	fs0,8(s0)
    173e:	0015                	c.nop	5
    1740:	0000                	unimp
    1742:	0800                	addi	s0,sp,16
    1744:	008a                	slli	ra,ra,0x2
    1746:	0000                	unimp
    1748:	0002b617          	auipc	a2,0x2b
    174c:	0100                	addi	s0,sp,128
    174e:	0708                	addi	a0,sp,896
    1750:	015a                	slli	sp,sp,0x16
    1752:	0000                	unimp
    1754:	06b6                	slli	a3,a3,0xd
    1756:	0001                	nop
    1758:	0000                	unimp
    175a:	0000                	unimp
    175c:	0038                	addi	a4,sp,8
    175e:	0000                	unimp
    1760:	0000                	unimp
    1762:	0000                	unimp
    1764:	9c01                	subw	s0,s0,s0
    1766:	0002b10b          	0x2b10b
    176a:	0800                	addi	s0,sp,16
    176c:	015a                	slli	sp,sp,0x16
    176e:	0000                	unimp
    1770:	5a01                	li	s4,-32
    1772:	7301                	lui	t1,0xfffe0
    1774:	6372                	ld	t1,280(sp)
    1776:	0800                	addi	s0,sp,16
    1778:	5c26                	lw	s8,104(sp)
    177a:	0001                	nop
    177c:	4d00                	lw	s0,24(a0)
    177e:	0015                	c.nop	5
    1780:	0600                	addi	s0,sp,768
    1782:	656c                	ld	a1,200(a0)
    1784:	006e                	c.slli	zero,0x1b
    1786:	3208                	fld	fa0,32(a2)
    1788:	0035                	c.nop	13
    178a:	0000                	unimp
    178c:	5c01                	li	s8,-32
    178e:	09007303          	0x9007303
    1792:	0000f00f          	0xf00f
    1796:	7700                	ld	s0,40(a4)
    1798:	0015                	c.nop	5
    179a:	0300                	addi	s0,sp,384
    179c:	0064                	addi	s1,sp,12
    179e:	090a                	slli	s2,s2,0x2
    17a0:	000000eb          	0xeb
    17a4:	000015b3          	sll	a1,zero,zero
	...

Disassembly of section .debug_abbrev:

0000000000000000 <.debug_abbrev>:
   0:	4901                	li	s2,0
   2:	0200                	addi	s0,sp,256
   4:	7e18                	ld	a4,56(a2)
   6:	0018                	0x18
   8:	0200                	addi	s0,sp,256
   a:	0005                	c.nop	1
   c:	1349                	addi	t1,t1,-14
   e:	0000                	unimp
  10:	7d014803          	lbu	a6,2000(sp)
  14:	7f01                	lui	t5,0xfffe0
  16:	00130113          	addi	sp,t1,1 # fffffffffffe0001 <__global_pointer$+0xfffffffffffcddfd>
  1a:	0400                	addi	s0,sp,512
  1c:	0024                	addi	s1,sp,8
  1e:	0b3e0b0b          	0xb3e0b0b
  22:	00000e03          	lb	t3,0(zero) # 0 <main-0x100b0>
  26:	2e05                	addiw	t3,t3,1
  28:	3f01                	addiw	t5,t5,-32
  2a:	0319                	addi	t1,t1,6
  2c:	3a0e                	fld	fs4,224(sp)
  2e:	390b3b0b          	0x390b3b0b
  32:	4919270b          	0x4919270b
  36:	01193c13          	sltiu	s8,s2,17
  3a:	06000013          	li	zero,96
  3e:	0034                	addi	a3,sp,8
  40:	213a0803          	lb	a6,531(s4)
  44:	3b01                	addiw	s6,s6,-32
  46:	490b390b          	0x490b390b
  4a:	00170213          	addi	tp,a4,1 # 2201001 <__global_pointer$+0x21eedfd>
  4e:	0700                	addi	s0,sp,896
  50:	0034                	addi	a3,sp,8
  52:	213a0e03          	lb	t3,531(s4)
  56:	3b01                	addiw	s6,s6,-32
  58:	490b390b          	0x490b390b
  5c:	00170213          	addi	tp,a4,1
  60:	0800                	addi	s0,sp,16
  62:	0048                	addi	a0,sp,4
  64:	017d                	addi	sp,sp,31
  66:	137f                	0x137f
  68:	0000                	unimp
  6a:	0f09                	addi	t5,t5,2
  6c:	0b00                	addi	s0,sp,400
  6e:	0821                	addi	a6,a6,8
  70:	1349                	addi	t1,t1,-14
  72:	0000                	unimp
  74:	370a                	fld	fa4,160(sp)
  76:	4900                	lw	s0,16(a0)
  78:	0b000013          	li	zero,176
  7c:	0018                	0x18
  7e:	0000                	unimp
  80:	050c                	addi	a1,sp,640
  82:	0300                	addi	s0,sp,384
  84:	3a0e                	fld	fs4,224(sp)
  86:	0121                	addi	sp,sp,8
  88:	390a213b          	0x390a213b
  8c:	0213490b          	0x213490b
  90:	0d000017          	auipc	zero,0xd000
  94:	0148                	addi	a0,sp,132
  96:	017d                	addi	sp,sp,31
  98:	137f                	0x137f
  9a:	0000                	unimp
  9c:	110e                	slli	sp,sp,0x23
  9e:	2501                	sext.w	a0,a0
  a0:	130e                	slli	t1,t1,0x23
  a2:	1b1f030b          	0x1b1f030b
  a6:	111f 1201 1007      	0x10071201111f
  ac:	0f000017          	auipc	zero,0xf000
  b0:	0016                	c.slli	zero,0x5
  b2:	0b3a0e03          	lb	t3,179(s4)
  b6:	0b390b3b          	0xb390b3b
  ba:	1349                	addi	t1,t1,-14
  bc:	0000                	unimp
  be:	2410                	fld	fa2,8(s0)
  c0:	0b00                	addi	s0,sp,400
  c2:	030b3e0b          	0x30b3e0b
  c6:	0008                	0x8
  c8:	1100                	addi	s0,sp,160
  ca:	0026                	c.slli	zero,0x9
  cc:	1349                	addi	t1,t1,-14
  ce:	0000                	unimp
  d0:	0f12                	slli	t5,t5,0x4
  d2:	0b00                	addi	s0,sp,400
  d4:	1300000b          	0x1300000b
  d8:	002e                	c.slli	zero,0xb
  da:	0e03193f 0b3b0b3a 	0xb3b0b3a0e03193f
  e2:	0b39                	addi	s6,s6,14
  e4:	13491927          	0x13491927
  e8:	193c                	addi	a5,sp,184
  ea:	0000                	unimp
  ec:	2e14                	fld	fa3,24(a2)
  ee:	3f01                	addiw	t5,t5,-32
  f0:	0319                	addi	t1,t1,6
  f2:	3a0e                	fld	fs4,224(sp)
  f4:	390b3b0b          	0x390b3b0b
  f8:	3c13490b          	0x3c13490b
  fc:	0119                	addi	sp,sp,6
  fe:	15000013          	li	zero,336
 102:	012e                	slli	sp,sp,0xb
 104:	0e03193f 0b3b0b3a 	0xb3b0b3a0e03193f
 10c:	0b39                	addi	s6,s6,14
 10e:	13491927          	0x13491927
 112:	0111                	addi	sp,sp,4
 114:	0712                	slli	a4,a4,0x4
 116:	1840                	addi	s0,sp,52
 118:	197a                	slli	s2,s2,0x3e
 11a:	1301                	addi	t1,t1,-32
 11c:	0000                	unimp
 11e:	3416                	fld	fs0,352(sp)
 120:	0300                	addi	s0,sp,384
 122:	3a0e                	fld	fs4,224(sp)
 124:	390b3b0b          	0x390b3b0b
 128:	1c13490b          	0x1c13490b
 12c:	0005                	c.nop	1
 12e:	1700                	addi	s0,sp,928
 130:	0034                	addi	a3,sp,8
 132:	0b3a0e03          	lb	t3,179(s4)
 136:	0b390b3b          	0xb390b3b
 13a:	1349                	addi	t1,t1,-14
 13c:	1802                	slli	a6,a6,0x20
 13e:	0000                	unimp
 140:	0b18                	addi	a4,sp,400
 142:	5501                	li	a0,-32
 144:	00130117          	auipc	sp,0x130
 148:	1900                	addi	s0,sp,176
 14a:	0111010b          	0x111010b
 14e:	0712                	slli	a4,a4,0x4
 150:	1301                	addi	t1,t1,-32
 152:	0000                	unimp
 154:	011a                	slli	sp,sp,0x6
 156:	4901                	li	s2,0
 158:	00130113          	addi	sp,t1,1
 15c:	1b00                	addi	s0,sp,432
 15e:	0021                	c.nop	8
 160:	1349                	addi	t1,t1,-14
 162:	0000182f          	0x182f
 166:	011c                	addi	a5,sp,128
 168:	4901                	li	s2,0
 16a:	1d000013          	li	zero,464
 16e:	0021                	c.nop	8
 170:	1349                	addi	t1,t1,-14
 172:	00000b2f          	0xb2f
 176:	0100                	addi	s0,sp,128
 178:	0049                	c.nop	18
 17a:	1802                	slli	a6,a6,0x20
 17c:	187e                	slli	a6,a6,0x3f
 17e:	0000                	unimp
 180:	4802                	lw	a6,0(sp)
 182:	7d01                	lui	s10,0xfffe0
 184:	7f01                	lui	t5,0xfffe0
 186:	03000013          	li	zero,48
 18a:	012e                	slli	sp,sp,0xb
 18c:	0e03193f 0b3b0b3a 	0xb3b0b3a0e03193f
 194:	0b39                	addi	s6,s6,14
 196:	13491927          	0x13491927
 19a:	0111                	addi	sp,sp,4
 19c:	0712                	slli	a4,a4,0x4
 19e:	1840                	addi	s0,sp,52
 1a0:	197a                	slli	s2,s2,0x3e
 1a2:	1301                	addi	t1,t1,-32
 1a4:	0000                	unimp
 1a6:	0504                	addi	s1,sp,640
 1a8:	0300                	addi	s0,sp,384
 1aa:	3a08                	fld	fa0,48(a2)
 1ac:	0121                	addi	sp,sp,8
 1ae:	0b390b3b          	0xb390b3b
 1b2:	1349                	addi	t1,t1,-14
 1b4:	1702                	slli	a4,a4,0x20
 1b6:	0000                	unimp
 1b8:	0505                	addi	a0,a0,1
 1ba:	0300                	addi	s0,sp,384
 1bc:	3a0e                	fld	fs4,224(sp)
 1be:	0121                	addi	sp,sp,8
 1c0:	0b390b3b          	0xb390b3b
 1c4:	1349                	addi	t1,t1,-14
 1c6:	1702                	slli	a4,a4,0x20
 1c8:	0000                	unimp
 1ca:	2406                	fld	fs0,64(sp)
 1cc:	0b00                	addi	s0,sp,400
 1ce:	030b3e0b          	0x30b3e0b
 1d2:	000e                	c.slli	zero,0x3
 1d4:	0700                	addi	s0,sp,896
 1d6:	000d                	c.nop	3
 1d8:	213a0e03          	lb	t3,531(s4)
 1dc:	3b02                	fld	fs6,32(sp)
 1de:	490b390b          	0x490b390b
 1e2:	000b3813          	sltiu	a6,s6,0
 1e6:	0800                	addi	s0,sp,16
 1e8:	0005                	c.nop	1
 1ea:	213a0803          	lb	a6,531(s4)
 1ee:	3b01                	addiw	s6,s6,-32
 1f0:	490b390b          	0x490b390b
 1f4:	00180213          	addi	tp,a6,1
 1f8:	0900                	addi	s0,sp,144
 1fa:	0016                	c.slli	zero,0x5
 1fc:	0b3a0e03          	lb	t3,179(s4)
 200:	0b390b3b          	0xb390b3b
 204:	1349                	addi	t1,t1,-14
 206:	0000                	unimp
 208:	0f0a                	slli	t5,t5,0x2
 20a:	0b00                	addi	s0,sp,400
 20c:	0821                	addi	a6,a6,8
 20e:	1349                	addi	t1,t1,-14
 210:	0000                	unimp
 212:	4900050b          	0x4900050b
 216:	0c000013          	li	zero,192
 21a:	0034                	addi	a3,sp,8
 21c:	213a0803          	lb	a6,531(s4)
 220:	3b01                	addiw	s6,s6,-32
 222:	490b390b          	0x490b390b
 226:	00180213          	addi	tp,a6,1
 22a:	0d00                	addi	s0,sp,656
 22c:	0034                	addi	a3,sp,8
 22e:	213a0803          	lb	a6,531(s4)
 232:	3b01                	addiw	s6,s6,-32
 234:	490b390b          	0x490b390b
 238:	00170213          	addi	tp,a4,1
 23c:	0e00                	addi	s0,sp,784
 23e:	0101                	addi	sp,sp,0
 240:	1349                	addi	t1,t1,-14
 242:	1301                	addi	t1,t1,-32
 244:	0000                	unimp
 246:	4900210f          	0x4900210f
 24a:	000b2f13          	slti	t5,s6,0
 24e:	1000                	addi	s0,sp,32
 250:	0111                	addi	sp,sp,4
 252:	0e25                	addi	t3,t3,9
 254:	1f030b13          	addi	s6,t1,496
 258:	01111f1b          	slliw	t5,sp,0x11
 25c:	0712                	slli	a4,a4,0x4
 25e:	1710                	addi	a2,sp,928
 260:	0000                	unimp
 262:	2411                	addiw	s0,s0,4
 264:	0b00                	addi	s0,sp,400
 266:	030b3e0b          	0x30b3e0b
 26a:	0008                	0x8
 26c:	1200                	addi	s0,sp,288
 26e:	08030113          	addi	sp,t1,128
 272:	0b3a0b0b          	0xb3a0b0b
 276:	0b390b3b          	0xb390b3b
 27a:	1301                	addi	t1,t1,-32
 27c:	0000                	unimp
 27e:	49002613          	slti	a2,zero,1168
 282:	14000013          	li	zero,320
 286:	0e030113          	addi	sp,t1,224
 28a:	0b3a0b0b          	0xb3a0b0b
 28e:	0b390b3b          	0xb390b3b
 292:	1301                	addi	t1,t1,-32
 294:	0000                	unimp
 296:	0f15                	addi	t5,t5,5
 298:	0b00                	addi	s0,sp,400
 29a:	1600000b          	0x1600000b
 29e:	0b0b000f          	0xb0b000f
 2a2:	00000e03          	lb	t3,0(zero) # 0 <main-0x100b0>
 2a6:	3f012e17          	auipc	t3,0x3f012
 2aa:	0319                	addi	t1,t1,6
 2ac:	3a0e                	fld	fs4,224(sp)
 2ae:	390b3b0b          	0x390b3b0b
 2b2:	4919270b          	0x4919270b
 2b6:	01193c13          	sltiu	s8,s2,17
 2ba:	18000013          	li	zero,384
 2be:	012e                	slli	sp,sp,0xb
 2c0:	0e03193f 0b3b0b3a 	0xb3b0b3a0e03193f
 2c8:	0b39                	addi	s6,s6,14
 2ca:	0111                	addi	sp,sp,4
 2cc:	0712                	slli	a4,a4,0x4
 2ce:	1840                	addi	s0,sp,52
 2d0:	197a                	slli	s2,s2,0x3e
 2d2:	1301                	addi	t1,t1,-32
 2d4:	0000                	unimp
 2d6:	2e19                	addiw	t3,t3,6
 2d8:	3f01                	addiw	t5,t5,-32
 2da:	0319                	addi	t1,t1,6
 2dc:	3a0e                	fld	fs4,224(sp)
 2de:	390b3b0b          	0x390b3b0b
 2e2:	1119270b          	0x1119270b
 2e6:	1201                	addi	tp,tp,-32
 2e8:	7a184007          	flq	ft0,1953(a6)
 2ec:	0119                	addi	sp,sp,6
 2ee:	1a000013          	li	zero,416
 2f2:	012e                	slli	sp,sp,0xb
 2f4:	0e03193f 0b3b0b3a 	0xb3b0b3a0e03193f
 2fc:	0b39                	addi	s6,s6,14
 2fe:	1349                	addi	t1,t1,-14
 300:	0111                	addi	sp,sp,4
 302:	0712                	slli	a4,a4,0x4
 304:	1840                	addi	s0,sp,52
 306:	197a                	slli	s2,s2,0x3e
 308:	1301                	addi	t1,t1,-32
 30a:	0000                	unimp
 30c:	0000181b          	slliw	a6,zero,0x0
 310:	1c00                	addi	s0,sp,560
 312:	0148                	addi	a0,sp,132
 314:	017d                	addi	sp,sp,31
 316:	137f                	0x137f
 318:	1301                	addi	t1,t1,-32
 31a:	0000                	unimp
 31c:	2e1d                	addiw	t3,t3,7
 31e:	3f01                	addiw	t5,t5,-32
 320:	0319                	addi	t1,t1,6
 322:	3a0e                	fld	fs4,224(sp)
 324:	390b3b0b          	0x390b3b0b
 328:	4919270b          	0x4919270b
 32c:	12011113          	0x12011113
 330:	7a184007          	flq	ft0,1953(a6)
 334:	0019                	c.nop	6
 336:	0000                	unimp
 338:	2401                	sext.w	s0,s0
 33a:	0b00                	addi	s0,sp,400
 33c:	030b3e0b          	0x30b3e0b
 340:	000e                	c.slli	zero,0x3
 342:	0200                	addi	s0,sp,256
 344:	0034                	addi	a3,sp,8
 346:	213a0803          	lb	a6,531(s4)
 34a:	3b01                	addiw	s6,s6,-32
 34c:	490b390b          	0x490b390b
 350:	00170213          	addi	tp,a4,1
 354:	0300                	addi	s0,sp,384
 356:	0016                	c.slli	zero,0x5
 358:	0b3a0e03          	lb	t3,179(s4)
 35c:	0b390b3b          	0xb390b3b
 360:	1349                	addi	t1,t1,-14
 362:	0000                	unimp
 364:	0504                	addi	s1,sp,640
 366:	0300                	addi	s0,sp,384
 368:	3a08                	fld	fa0,48(a2)
 36a:	0121                	addi	sp,sp,8
 36c:	390b213b          	0x390b213b
 370:	0213490b          	0x213490b
 374:	05000017          	auipc	zero,0x5000
 378:	0034                	addi	a3,sp,8
 37a:	213a0e03          	lb	t3,531(s4)
 37e:	3b01                	addiw	s6,s6,-32
 380:	490b390b          	0x490b390b
 384:	00170213          	addi	tp,a4,1
 388:	0600                	addi	s0,sp,768
 38a:	0111010b          	0x111010b
 38e:	0712                	slli	a4,a4,0x4
 390:	1301                	addi	t1,t1,-32
 392:	0000                	unimp
 394:	55010b07          	0x55010b07
 398:	08000017          	auipc	zero,0x8000
 39c:	0111010b          	0x111010b
 3a0:	0712                	slli	a4,a4,0x4
 3a2:	0000                	unimp
 3a4:	0f09                	addi	t5,t5,2
 3a6:	0b00                	addi	s0,sp,400
 3a8:	0821                	addi	a6,a6,8
 3aa:	1349                	addi	t1,t1,-14
 3ac:	0000                	unimp
 3ae:	110a                	slli	sp,sp,0x22
 3b0:	2501                	sext.w	a0,a0
 3b2:	130e                	slli	t1,t1,0x23
 3b4:	1b1f030b          	0x1b1f030b
 3b8:	111f 1201 1007      	0x10071201111f
 3be:	0b000017          	auipc	zero,0xb000
 3c2:	0b0b000f          	0xb0b000f
 3c6:	00000e03          	lb	t3,0(zero) # 0 <main-0x100b0>
 3ca:	240c                	fld	fa1,8(s0)
 3cc:	0b00                	addi	s0,sp,400
 3ce:	030b3e0b          	0x30b3e0b
 3d2:	0008                	0x8
 3d4:	0d00                	addi	s0,sp,656
 3d6:	0026                	c.slli	zero,0x9
 3d8:	1349                	addi	t1,t1,-14
 3da:	0000                	unimp
 3dc:	2e0e                	fld	ft8,192(sp)
 3de:	3f01                	addiw	t5,t5,-32
 3e0:	0319                	addi	t1,t1,6
 3e2:	3a0e                	fld	fs4,224(sp)
 3e4:	390b3b0b          	0x390b3b0b
 3e8:	4919270b          	0x4919270b
 3ec:	12011113          	0x12011113
 3f0:	7a184007          	flq	ft0,1953(a6)
 3f4:	0119                	addi	sp,sp,6
 3f6:	0f000013          	li	zero,240
 3fa:	1755010b          	0x1755010b
 3fe:	1301                	addi	t1,t1,-32
 400:	0000                	unimp
 402:	0100                	addi	s0,sp,128
 404:	0005                	c.nop	1
 406:	213a0803          	lb	a6,531(s4)
 40a:	3b01                	addiw	s6,s6,-32
 40c:	490b390b          	0x490b390b
 410:	00170213          	addi	tp,a4,1
 414:	0200                	addi	s0,sp,256
 416:	012e                	slli	sp,sp,0xb
 418:	0e03193f 3b01213a 	0x3b01213a0e03193f
 420:	270b390b          	0x270b390b
 424:	4919                	li	s2,6
 426:	12011113          	0x12011113
 42a:	7a184007          	flq	ft0,1953(a6)
 42e:	0119                	addi	sp,sp,6
 430:	03000013          	li	zero,48
 434:	0034                	addi	a3,sp,8
 436:	213a0803          	lb	a6,531(s4)
 43a:	3b01                	addiw	s6,s6,-32
 43c:	490b390b          	0x490b390b
 440:	00170213          	addi	tp,a4,1
 444:	0400                	addi	s0,sp,512
 446:	0024                	addi	s1,sp,8
 448:	0b3e0b0b          	0xb3e0b0b
 44c:	00000e03          	lb	t3,0(zero) # 0 <main-0x100b0>
 450:	4905                	li	s2,1
 452:	0200                	addi	s0,sp,256
 454:	7e18                	ld	a4,56(a2)
 456:	0018                	0x18
 458:	0600                	addi	s0,sp,768
 45a:	0005                	c.nop	1
 45c:	213a0803          	lb	a6,531(s4)
 460:	3b01                	addiw	s6,s6,-32
 462:	490b390b          	0x490b390b
 466:	00180213          	addi	tp,a6,1
 46a:	0700                	addi	s0,sp,896
 46c:	0034                	addi	a3,sp,8
 46e:	213a0803          	lb	a6,531(s4)
 472:	3b01                	addiw	s6,s6,-32
 474:	490b390b          	0x490b390b
 478:	00180213          	addi	tp,a6,1
 47c:	0800                	addi	s0,sp,16
 47e:	210b000f          	0x210b000f
 482:	4908                	lw	a0,16(a0)
 484:	09000013          	li	zero,144
 488:	0016                	c.slli	zero,0x5
 48a:	0b3a0e03          	lb	t3,179(s4)
 48e:	0b390b3b          	0xb390b3b
 492:	1349                	addi	t1,t1,-14
 494:	0000                	unimp
 496:	340a                	fld	fs0,160(sp)
 498:	0300                	addi	s0,sp,384
 49a:	3a0e                	fld	fs4,224(sp)
 49c:	0121                	addi	sp,sp,8
 49e:	0b390b3b          	0xb390b3b
 4a2:	1349                	addi	t1,t1,-14
 4a4:	1702                	slli	a4,a4,0x20
 4a6:	0000                	unimp
 4a8:	0300050b          	0x300050b
 4ac:	3a0e                	fld	fs4,224(sp)
 4ae:	0121                	addi	sp,sp,8
 4b0:	21390b3b          	0x21390b3b
 4b4:	4914                	lw	a3,16(a0)
 4b6:	00180213          	addi	tp,a6,1
 4ba:	0c00                	addi	s0,sp,528
 4bc:	0148                	addi	a0,sp,132
 4be:	017d                	addi	sp,sp,31
 4c0:	137f                	0x137f
 4c2:	1301                	addi	t1,t1,-32
 4c4:	0000                	unimp
 4c6:	480d                	li	a6,3
 4c8:	7d01                	lui	s10,0xfffe0
 4ca:	7f01                	lui	t5,0xfffe0
 4cc:	0e000013          	li	zero,224
 4d0:	0005                	c.nop	1
 4d2:	213a0e03          	lb	t3,531(s4)
 4d6:	3b01                	addiw	s6,s6,-32
 4d8:	490b390b          	0x490b390b
 4dc:	00170213          	addi	tp,a4,1
 4e0:	0f00                	addi	s0,sp,912
 4e2:	0111                	addi	sp,sp,4
 4e4:	0e25                	addi	t3,t3,9
 4e6:	1f030b13          	addi	s6,t1,496
 4ea:	01111f1b          	slliw	t5,sp,0x11
 4ee:	0712                	slli	a4,a4,0x4
 4f0:	1710                	addi	a2,sp,928
 4f2:	0000                	unimp
 4f4:	2410                	fld	fa2,8(s0)
 4f6:	0b00                	addi	s0,sp,400
 4f8:	030b3e0b          	0x30b3e0b
 4fc:	0008                	0x8
 4fe:	1100                	addi	s0,sp,160
 500:	0026                	c.slli	zero,0x9
 502:	1349                	addi	t1,t1,-14
 504:	0000                	unimp
 506:	0f12                	slli	t5,t5,0x4
 508:	0b00                	addi	s0,sp,400
 50a:	1300000b          	0x1300000b
 50e:	0026                	c.slli	zero,0x9
 510:	0000                	unimp
 512:	3414                	fld	fa3,40(s0)
 514:	0300                	addi	s0,sp,384
 516:	3a0e                	fld	fs4,224(sp)
 518:	390b3b0b          	0x390b3b0b
 51c:	0213490b          	0x213490b
 520:	0018                	0x18
 522:	1500                	addi	s0,sp,672
 524:	0111010b          	0x111010b
 528:	0712                	slli	a4,a4,0x4
 52a:	1301                	addi	t1,t1,-32
 52c:	0000                	unimp
 52e:	0b16                	slli	s6,s6,0x5
 530:	5501                	li	a0,-32
 532:	17000017          	auipc	zero,0x17000
 536:	012e                	slli	sp,sp,0xb
 538:	0e03193f 0b3b0b3a 	0xb3b0b3a0e03193f
 540:	0b39                	addi	s6,s6,14
 542:	13491927          	0x13491927
 546:	0111                	addi	sp,sp,4
 548:	0712                	slli	a4,a4,0x4
 54a:	1840                	addi	s0,sp,52
 54c:	197a                	slli	s2,s2,0x3e
 54e:	0000                	unimp
	...

Disassembly of section .debug_line:

0000000000000000 <.debug_line>:
       0:	00000217          	auipc	tp,0x0
       4:	0005                	c.nop	1
       6:	0008                	0x8
       8:	004e                	c.slli	zero,0x13
       a:	0000                	unimp
       c:	0101                	addi	sp,sp,0
       e:	fb01                	bnez	a4,ffffffffffffff1e <__global_pointer$+0xfffffffffffedd1a>
      10:	0d0e                	slli	s10,s10,0x3
      12:	0100                	addi	s0,sp,128
      14:	0101                	addi	sp,sp,0
      16:	0001                	nop
      18:	0000                	unimp
      1a:	0001                	nop
      1c:	0100                	addi	s0,sp,128
      1e:	0101                	addi	sp,sp,0
      20:	051f 0000 0000      	0x51f
      26:	002d                	c.nop	11
      28:	0000                	unimp
      2a:	0032                	c.slli	zero,0xc
      2c:	0000                	unimp
      2e:	0070                	addi	a2,sp,12
      30:	0000                	unimp
      32:	00b2                	slli	ra,ra,0xc
      34:	0000                	unimp
      36:	0102                	c.slli64	sp
      38:	021f 060f 001c      	0x1c060f021f
      3e:	0000                	unimp
      40:	2100                	fld	fs0,0(a0)
      42:	0000                	unimp
      44:	0100                	addi	s0,sp,128
      46:	00b9                	addi	ra,ra,14
      48:	0000                	unimp
      4a:	c401                	beqz	s0,52 <main-0x1005e>
      4c:	0000                	unimp
      4e:	0200                	addi	s0,sp,256
      50:	00cd                	addi	ra,ra,19
      52:	0000                	unimp
      54:	0001bd03          	ld	s10,0(gp) # 12204 <__global_pointer$>
      58:	0400                	addi	s0,sp,512
      5a:	2205                	addiw	tp,tp,1
      5c:	0900                	addi	s0,sp,144
      5e:	b002                	fsd	ft0,32(sp)
      60:	0100                	addi	s0,sp,128
      62:	0000                	unimp
      64:	0000                	unimp
      66:	0300                	addi	s0,sp,384
      68:	0109                	addi	sp,sp,2
      6a:	0305                	addi	t1,t1,1
      6c:	10090103          	lb	sp,256(s2)
      70:	0100                	addi	s0,sp,128
      72:	0c090103          	lb	sp,192(s2)
      76:	0100                	addi	s0,sp,128
      78:	00090103          	lb	sp,0(s2)
      7c:	0100                	addi	s0,sp,128
      7e:	00090103          	lb	sp,0(s2)
      82:	0100                	addi	s0,sp,128
      84:	0805                	addi	a6,a6,1
      86:	0306                	slli	t1,t1,0x1
      88:	0900                	addi	s0,sp,144
      8a:	0000                	unimp
      8c:	0501                	addi	a0,a0,0
      8e:	01030603          	lb	a2,16(t1)
      92:	0609                	addi	a2,a2,2
      94:	0100                	addi	s0,sp,128
      96:	00090103          	lb	sp,0(s2)
      9a:	0100                	addi	s0,sp,128
      9c:	0805                	addi	a6,a6,1
      9e:	0306                	slli	t1,t1,0x1
      a0:	0900                	addi	s0,sp,144
      a2:	0000                	unimp
      a4:	0501                	addi	a0,a0,0
      a6:	01030603          	lb	a2,16(t1)
      aa:	0e09                	addi	t3,t3,2
      ac:	0100                	addi	s0,sp,128
      ae:	0805                	addi	a6,a6,1
      b0:	0306                	slli	t1,t1,0x1
      b2:	0900                	addi	s0,sp,144
      b4:	0000                	unimp
      b6:	0501                	addi	a0,a0,0
      b8:	02030603          	lb	a2,32(t1)
      bc:	1009                	c.nop	-30
      be:	0100                	addi	s0,sp,128
      c0:	0a090103          	lb	sp,160(s2)
      c4:	0100                	addi	s0,sp,128
      c6:	06090103          	lb	sp,96(s2)
      ca:	0100                	addi	s0,sp,128
      cc:	1305                	addi	t1,t1,-31
      ce:	0306                	slli	t1,t1,0x1
      d0:	0900                	addi	s0,sp,144
      d2:	0000                	unimp
      d4:	0501                	addi	a0,a0,0
      d6:	01030603          	lb	a2,16(t1)
      da:	0609                	addi	a2,a2,2
      dc:	0100                	addi	s0,sp,128
      de:	1005                	c.nop	-31
      e0:	0306                	slli	t1,t1,0x1
      e2:	0900                	addi	s0,sp,144
      e4:	0000                	unimp
      e6:	0501                	addi	a0,a0,0
      e8:	01030603          	lb	a2,16(t1)
      ec:	0609                	addi	a2,a2,2
      ee:	0100                	addi	s0,sp,128
      f0:	0705                	addi	a4,a4,1
      f2:	0306                	slli	t1,t1,0x1
      f4:	0900                	addi	s0,sp,144
      f6:	0000                	unimp
      f8:	0601                	addi	a2,a2,0
      fa:	04090803          	lb	a6,64(s2)
      fe:	0100                	addi	s0,sp,128
     100:	0f05                	addi	t5,t5,1
     102:	0306                	slli	t1,t1,0x1
     104:	0900                	addi	s0,sp,144
     106:	0000                	unimp
     108:	0501                	addi	a0,a0,0
     10a:	10030607          	0x10030607
     10e:	0e09                	addi	t3,t3,2
     110:	0100                	addi	s0,sp,128
     112:	04090103          	lb	sp,64(s2)
     116:	0100                	addi	s0,sp,128
     118:	0305                	addi	t1,t1,1
     11a:	0c096803          	lwu	a6,192(s2)
     11e:	0100                	addi	s0,sp,128
     120:	0505                	addi	a0,a0,1
     122:	00090203          	lb	tp,0(s2)
     126:	0100                	addi	s0,sp,128
     128:	0705                	addi	a4,a4,1
     12a:	0306                	slli	t1,t1,0x1
     12c:	0900                	addi	s0,sp,144
     12e:	0000                	unimp
     130:	0601                	addi	a2,a2,0
     132:	04090103          	lb	sp,64(s2)
     136:	0100                	addi	s0,sp,128
     138:	0f05                	addi	t5,t5,1
     13a:	0306                	slli	t1,t1,0x1
     13c:	0900                	addi	s0,sp,144
     13e:	0000                	unimp
     140:	0501                	addi	a0,a0,0
     142:	01030607          	0x1030607
     146:	0c09                	addi	s8,s8,2
     148:	0100                	addi	s0,sp,128
     14a:	0d05                	addi	s10,s10,1
     14c:	0306                	slli	t1,t1,0x1
     14e:	0900                	addi	s0,sp,144
     150:	0000                	unimp
     152:	0501                	addi	a0,a0,0
     154:	0605                	addi	a2,a2,1
     156:	02090403          	lb	s0,32(s2)
     15a:	0100                	addi	s0,sp,128
     15c:	06090103          	lb	sp,96(s2)
     160:	0100                	addi	s0,sp,128
     162:	0d05                	addi	s10,s10,1
     164:	0306                	slli	t1,t1,0x1
     166:	0900                	addi	s0,sp,144
     168:	0000                	unimp
     16a:	0501                	addi	a0,a0,0
     16c:	0605                	addi	a2,a2,1
     16e:	0c090103          	lb	sp,192(s2)
     172:	0100                	addi	s0,sp,128
     174:	06090103          	lb	sp,96(s2)
     178:	0100                	addi	s0,sp,128
     17a:	0805                	addi	a6,a6,1
     17c:	0306                	slli	t1,t1,0x1
     17e:	0900                	addi	s0,sp,144
     180:	0000                	unimp
     182:	0501                	addi	a0,a0,0
     184:	09000307          	0x9000307
     188:	000e                	c.slli	zero,0x3
     18a:	0501                	addi	a0,a0,0
     18c:	04020027          	0x4020027
     190:	0301                	addi	t1,t1,0
     192:	0900                	addi	s0,sp,144
     194:	0002                	c.slli64	zero
     196:	0501                	addi	a0,a0,0
     198:	0024                	addi	s1,sp,8
     19a:	0402                	c.slli64	s0
     19c:	0301                	addi	t1,t1,0
     19e:	0900                	addi	s0,sp,144
     1a0:	000e                	c.slli	zero,0x3
     1a2:	0501                	addi	a0,a0,0
     1a4:	0605                	addi	a2,a2,1
     1a6:	02090203          	lb	tp,32(s2)
     1aa:	0100                	addi	s0,sp,128
     1ac:	10090103          	lb	sp,256(s2)
     1b0:	0100                	addi	s0,sp,128
     1b2:	0c090103          	lb	sp,192(s2)
     1b6:	0100                	addi	s0,sp,128
     1b8:	0f05                	addi	t5,t5,1
     1ba:	0306                	slli	t1,t1,0x1
     1bc:	0900                	addi	s0,sp,144
     1be:	0000                	unimp
     1c0:	0501                	addi	a0,a0,0
     1c2:	0605                	addi	a2,a2,1
     1c4:	04090103          	lb	sp,64(s2)
     1c8:	0100                	addi	s0,sp,128
     1ca:	0705                	addi	a4,a4,1
     1cc:	0306                	slli	t1,t1,0x1
     1ce:	0900                	addi	s0,sp,144
     1d0:	0000                	unimp
     1d2:	0601                	addi	a2,a2,0
     1d4:	02090103          	lb	sp,32(s2)
     1d8:	0100                	addi	s0,sp,128
     1da:	1105                	addi	sp,sp,-31
     1dc:	0306                	slli	t1,t1,0x1
     1de:	0900                	addi	s0,sp,144
     1e0:	0000                	unimp
     1e2:	0501                	addi	a0,a0,0
     1e4:	01030607          	0x1030607
     1e8:	0809                	addi	a6,a6,2
     1ea:	0100                	addi	s0,sp,128
     1ec:	0a05                	addi	s4,s4,1
     1ee:	0306                	slli	t1,t1,0x1
     1f0:	0900                	addi	s0,sp,144
     1f2:	0000                	unimp
     1f4:	0501                	addi	a0,a0,0
     1f6:	01030607          	0x1030607
     1fa:	0609                	addi	a2,a2,2
     1fc:	0100                	addi	s0,sp,128
     1fe:	0305                	addi	t1,t1,1
     200:	0e090803          	lb	a6,224(s2)
     204:	0100                	addi	s0,sp,128
     206:	06090103          	lb	sp,96(s2)
     20a:	0100                	addi	s0,sp,128
     20c:	0105                	addi	sp,sp,1
     20e:	0306                	slli	t1,t1,0x1
     210:	0901                	addi	s2,s2,0
     212:	0000                	unimp
     214:	0901                	addi	s2,s2,0
     216:	0016                	c.slli	zero,0x5
     218:	0100                	addi	s0,sp,128
     21a:	b301                	j	ffffffffffffff1a <__global_pointer$+0xfffffffffffedd16>
     21c:	05000003          	lb	zero,80(zero) # 50 <main-0x10060>
     220:	0800                	addi	s0,sp,16
     222:	5800                	lw	s0,48(s0)
     224:	0000                	unimp
     226:	0100                	addi	s0,sp,128
     228:	0101                	addi	sp,sp,0
     22a:	000d0efb          	0xd0efb
     22e:	0101                	addi	sp,sp,0
     230:	0101                	addi	sp,sp,0
     232:	0000                	unimp
     234:	0100                	addi	s0,sp,128
     236:	0000                	unimp
     238:	0101                	addi	sp,sp,0
     23a:	1f01                	addi	t5,t5,-32
     23c:	0005                	c.nop	1
     23e:	0000                	unimp
     240:	2d00                	fld	fs0,24(a0)
     242:	0000                	unimp
     244:	b200                	fsd	fs0,32(a2)
     246:	0000                	unimp
     248:	7000                	ld	s0,32(s0)
     24a:	0000                	unimp
     24c:	e600                	sd	s0,8(a2)
     24e:	0000                	unimp
     250:	0200                	addi	s0,sp,256
     252:	1f01                	addi	t5,t5,-32
     254:	0f02                	c.slli64	t5
     256:	d608                	sw	a0,40(a2)
     258:	0000                	unimp
     25a:	0000                	unimp
     25c:	000000db          	0xdb
     260:	bd01                	j	70 <main-0x10040>
     262:	0001                	nop
     264:	0200                	addi	s0,sp,256
     266:	01bc                	addi	a5,sp,200
     268:	0000                	unimp
     26a:	0001bd03          	ld	s10,0(gp) # 12204 <__global_pointer$>
     26e:	0300                	addi	s0,sp,384
     270:	00000133          	add	sp,zero,zero
     274:	cd04                	sw	s1,24(a0)
     276:	0000                	unimp
     278:	0300                	addi	s0,sp,384
     27a:	013c                	addi	a5,sp,136
     27c:	0000                	unimp
     27e:	0502                	c.slli64	a0
     280:	001d                	c.nop	7
     282:	0209                	addi	tp,tp,2
     284:	01d2                	slli	gp,gp,0x14
     286:	0001                	nop
     288:	0000                	unimp
     28a:	0000                	unimp
     28c:	05010d03          	lb	s10,80(sp) # 130194 <__global_pointer$+0x11df90>
     290:	09010303          	lb	t1,144(sp)
     294:	0002                	c.slli64	zero
     296:	0301                	addi	t1,t1,0
     298:	0904                	addi	s1,sp,144
     29a:	0000                	unimp
     29c:	0301                	addi	t1,t1,0
     29e:	00060907          	0x60907
     2a2:	0501                	addi	a0,a0,0
     2a4:	0601                	addi	a2,a2,0
     2a6:	00090103          	lb	sp,0(s2)
     2aa:	0100                	addi	s0,sp,128
     2ac:	2005                	0x2005
     2ae:	0306                	slli	t1,t1,0x1
     2b0:	0905                	addi	s2,s2,1
     2b2:	0006                	c.slli	zero,0x1
     2b4:	0501                	addi	a0,a0,0
     2b6:	09010303          	lb	t1,144(sp)
     2ba:	0012                	c.slli	zero,0x4
     2bc:	0301                	addi	t1,t1,0
     2be:	0901                	addi	s2,s2,0
     2c0:	0000                	unimp
     2c2:	0301                	addi	t1,t1,0
     2c4:	0902                	c.slli64	s2
     2c6:	0004                	0x4
     2c8:	0301                	addi	t1,t1,0
     2ca:	0901                	addi	s2,s2,0
     2cc:	0000                	unimp
     2ce:	0501                	addi	a0,a0,0
     2d0:	060d                	addi	a2,a2,3
     2d2:	00090003          	lb	zero,0(s2)
     2d6:	0100                	addi	s0,sp,128
     2d8:	0305                	addi	t1,t1,1
     2da:	0306                	slli	t1,t1,0x1
     2dc:	0901                	addi	s2,s2,0
     2de:	000c                	0xc
     2e0:	0301                	addi	t1,t1,0
     2e2:	0901                	addi	s2,s2,0
     2e4:	0000                	unimp
     2e6:	0301                	addi	t1,t1,0
     2e8:	0901                	addi	s2,s2,0
     2ea:	0000                	unimp
     2ec:	0501                	addi	a0,a0,0
     2ee:	0612                	slli	a2,a2,0x4
     2f0:	00090003          	lb	zero,0(s2)
     2f4:	0100                	addi	s0,sp,128
     2f6:	2605                	addiw	a2,a2,1
     2f8:	04090003          	lb	zero,64(s2)
     2fc:	0100                	addi	s0,sp,128
     2fe:	0200                	addi	s0,sp,256
     300:	0104                	addi	s1,sp,128
     302:	08090003          	lb	zero,128(s2)
     306:	0100                	addi	s0,sp,128
     308:	0305                	addi	t1,t1,1
     30a:	0200                	addi	s0,sp,256
     30c:	0404                	addi	s1,sp,512
     30e:	0306                	slli	t1,t1,0x1
     310:	00020903          	lb	s2,0(tp) # 0 <main-0x100b0>
     314:	0501                	addi	a0,a0,0
     316:	000a                	c.slli	zero,0x2
     318:	0402                	c.slli64	s0
     31a:	0604                	addi	s1,sp,768
     31c:	00090003          	lb	zero,0(s2)
     320:	0100                	addi	s0,sp,128
     322:	0105                	addi	sp,sp,1
     324:	0200                	addi	s0,sp,256
     326:	0404                	addi	s1,sp,512
     328:	14090103          	lb	sp,320(s2)
     32c:	0100                	addi	s0,sp,128
     32e:	2605                	addiw	a2,a2,1
     330:	08097c03          	0x8097c03
     334:	0100                	addi	s0,sp,128
     336:	1405                	addi	s0,s0,-31
     338:	0306                	slli	t1,t1,0x1
     33a:	0909                	addi	s2,s2,2
     33c:	0006                	c.slli	zero,0x1
     33e:	0501                	addi	a0,a0,0
     340:	09010303          	lb	t1,144(sp)
     344:	0006                	c.slli	zero,0x1
     346:	0501                	addi	a0,a0,0
     348:	060a                	slli	a2,a2,0x2
     34a:	00090003          	lb	zero,0(s2)
     34e:	0100                	addi	s0,sp,128
     350:	0105                	addi	sp,sp,1
     352:	14090103          	lb	sp,320(s2)
     356:	0100                	addi	s0,sp,128
     358:	1605                	addi	a2,a2,-31
     35a:	0306                	slli	t1,t1,0x1
     35c:	0905                	addi	s2,s2,1
     35e:	0008                	0x8
     360:	0501                	addi	a0,a0,0
     362:	09010303          	lb	t1,144(sp)
     366:	0004                	0x4
     368:	0501                	addi	a0,a0,0
     36a:	0611                	addi	a2,a2,4
     36c:	00090003          	lb	zero,0(s2)
     370:	0100                	addi	s0,sp,128
     372:	0105                	addi	sp,sp,1
     374:	16090103          	lb	sp,352(s2)
     378:	0100                	addi	s0,sp,128
     37a:	1b05                	addi	s6,s6,-31
     37c:	0306                	slli	t1,t1,0x1
     37e:	0905                	addi	s2,s2,1
     380:	0006                	c.slli	zero,0x1
     382:	0501                	addi	a0,a0,0
     384:	09010303          	lb	t1,144(sp)
     388:	0006                	c.slli	zero,0x1
     38a:	0501                	addi	a0,a0,0
     38c:	0601                	addi	a2,a2,0
     38e:	14090103          	lb	sp,320(s2)
     392:	0100                	addi	s0,sp,128
     394:	0c05                	addi	s8,s8,1
     396:	0306                	slli	t1,t1,0x1
     398:	0904                	addi	s1,sp,144
     39a:	0006                	c.slli	zero,0x1
     39c:	0501                	addi	a0,a0,0
     39e:	09010303          	lb	t1,144(sp)
     3a2:	0004                	0x4
     3a4:	0501                	addi	a0,a0,0
     3a6:	060a                	slli	a2,a2,0x2
     3a8:	00090003          	lb	zero,0(s2)
     3ac:	0100                	addi	s0,sp,128
     3ae:	0105                	addi	sp,sp,1
     3b0:	16090103          	lb	sp,352(s2)
     3b4:	0100                	addi	s0,sp,128
     3b6:	0e05                	addi	t3,t3,1
     3b8:	0306                	slli	t1,t1,0x1
     3ba:	0905                	addi	s2,s2,1
     3bc:	0008                	0x8
     3be:	0501                	addi	a0,a0,0
     3c0:	09010303          	lb	t1,144(sp)
     3c4:	0004                	0x4
     3c6:	0501                	addi	a0,a0,0
     3c8:	0601                	addi	a2,a2,0
     3ca:	16090103          	lb	sp,352(s2)
     3ce:	0100                	addi	s0,sp,128
     3d0:	0306                	slli	t1,t1,0x1
     3d2:	00060903          	lb	s2,0(a2) # 2c748 <__global_pointer$+0x1a544>
     3d6:	0501                	addi	a0,a0,0
     3d8:	09010303          	lb	t1,144(sp)
     3dc:	0006                	c.slli	zero,0x1
     3de:	0501                	addi	a0,a0,0
     3e0:	060a                	slli	a2,a2,0x2
     3e2:	00090003          	lb	zero,0(s2)
     3e6:	0100                	addi	s0,sp,128
     3e8:	0105                	addi	sp,sp,1
     3ea:	14090103          	lb	sp,320(s2)
     3ee:	0100                	addi	s0,sp,128
     3f0:	2b05                	addiw	s6,s6,1
     3f2:	0306                	slli	t1,t1,0x1
     3f4:	0905                	addi	s2,s2,1
     3f6:	0008                	0x8
     3f8:	0501                	addi	a0,a0,0
     3fa:	09010303          	lb	t1,144(sp)
     3fe:	0006                	c.slli	zero,0x1
     400:	0501                	addi	a0,a0,0
     402:	060a                	slli	a2,a2,0x2
     404:	00090003          	lb	zero,0(s2)
     408:	0100                	addi	s0,sp,128
     40a:	0105                	addi	sp,sp,1
     40c:	14090103          	lb	sp,320(s2)
     410:	0100                	addi	s0,sp,128
     412:	2d05                	addiw	s10,s10,1
     414:	0306                	slli	t1,t1,0x1
     416:	0905                	addi	s2,s2,1
     418:	0008                	0x8
     41a:	0501                	addi	a0,a0,0
     41c:	09010303          	lb	t1,144(sp)
     420:	0006                	c.slli	zero,0x1
     422:	0501                	addi	a0,a0,0
     424:	060a                	slli	a2,a2,0x2
     426:	00090003          	lb	zero,0(s2)
     42a:	0100                	addi	s0,sp,128
     42c:	0105                	addi	sp,sp,1
     42e:	14090103          	lb	sp,320(s2)
     432:	0100                	addi	s0,sp,128
     434:	2e05                	addiw	t3,t3,1
     436:	0306                	slli	t1,t1,0x1
     438:	0905                	addi	s2,s2,1
     43a:	0008                	0x8
     43c:	0501                	addi	a0,a0,0
     43e:	09010303          	lb	t1,144(sp)
     442:	0006                	c.slli	zero,0x1
     444:	0501                	addi	a0,a0,0
     446:	060a                	slli	a2,a2,0x2
     448:	00090003          	lb	zero,0(s2)
     44c:	0100                	addi	s0,sp,128
     44e:	0105                	addi	sp,sp,1
     450:	14090103          	lb	sp,320(s2)
     454:	0100                	addi	s0,sp,128
     456:	2d05                	addiw	s10,s10,1
     458:	0306                	slli	t1,t1,0x1
     45a:	0905                	addi	s2,s2,1
     45c:	0008                	0x8
     45e:	0501                	addi	a0,a0,0
     460:	09010303          	lb	t1,144(sp)
     464:	0006                	c.slli	zero,0x1
     466:	0501                	addi	a0,a0,0
     468:	060a                	slli	a2,a2,0x2
     46a:	00090003          	lb	zero,0(s2)
     46e:	0100                	addi	s0,sp,128
     470:	0105                	addi	sp,sp,1
     472:	14090103          	lb	sp,320(s2)
     476:	0100                	addi	s0,sp,128
     478:	2905                	addiw	s2,s2,1
     47a:	0306                	slli	t1,t1,0x1
     47c:	0905                	addi	s2,s2,1
     47e:	0008                	0x8
     480:	0501                	addi	a0,a0,0
     482:	09010303          	lb	t1,144(sp)
     486:	0006                	c.slli	zero,0x1
     488:	0501                	addi	a0,a0,0
     48a:	060a                	slli	a2,a2,0x2
     48c:	00090003          	lb	zero,0(s2)
     490:	0100                	addi	s0,sp,128
     492:	0105                	addi	sp,sp,1
     494:	14090103          	lb	sp,320(s2)
     498:	0100                	addi	s0,sp,128
     49a:	2e05                	addiw	t3,t3,1
     49c:	0306                	slli	t1,t1,0x1
     49e:	0905                	addi	s2,s2,1
     4a0:	0008                	0x8
     4a2:	0501                	addi	a0,a0,0
     4a4:	09010303          	lb	t1,144(sp)
     4a8:	0006                	c.slli	zero,0x1
     4aa:	0501                	addi	a0,a0,0
     4ac:	060a                	slli	a2,a2,0x2
     4ae:	00090003          	lb	zero,0(s2)
     4b2:	0100                	addi	s0,sp,128
     4b4:	0105                	addi	sp,sp,1
     4b6:	14090103          	lb	sp,320(s2)
     4ba:	0100                	addi	s0,sp,128
     4bc:	2405                	addiw	s0,s0,1
     4be:	0306                	slli	t1,t1,0x1
     4c0:	0905                	addi	s2,s2,1
     4c2:	0008                	0x8
     4c4:	0501                	addi	a0,a0,0
     4c6:	09010303          	lb	t1,144(sp)
     4ca:	0006                	c.slli	zero,0x1
     4cc:	0501                	addi	a0,a0,0
     4ce:	060a                	slli	a2,a2,0x2
     4d0:	00090003          	lb	zero,0(s2)
     4d4:	0100                	addi	s0,sp,128
     4d6:	0105                	addi	sp,sp,1
     4d8:	14090103          	lb	sp,320(s2)
     4dc:	0100                	addi	s0,sp,128
     4de:	2805                	addiw	a6,a6,1
     4e0:	0306                	slli	t1,t1,0x1
     4e2:	0905                	addi	s2,s2,1
     4e4:	0008                	0x8
     4e6:	0501                	addi	a0,a0,0
     4e8:	09010303          	lb	t1,144(sp)
     4ec:	0006                	c.slli	zero,0x1
     4ee:	0501                	addi	a0,a0,0
     4f0:	060a                	slli	a2,a2,0x2
     4f2:	00090003          	lb	zero,0(s2)
     4f6:	0100                	addi	s0,sp,128
     4f8:	0105                	addi	sp,sp,1
     4fa:	14090103          	lb	sp,320(s2)
     4fe:	0100                	addi	s0,sp,128
     500:	2305                	addiw	t1,t1,1
     502:	0306                	slli	t1,t1,0x1
     504:	0905                	addi	s2,s2,1
     506:	0008                	0x8
     508:	0501                	addi	a0,a0,0
     50a:	09010303          	lb	t1,144(sp)
     50e:	0006                	c.slli	zero,0x1
     510:	0501                	addi	a0,a0,0
     512:	060a                	slli	a2,a2,0x2
     514:	00090003          	lb	zero,0(s2)
     518:	0100                	addi	s0,sp,128
     51a:	0105                	addi	sp,sp,1
     51c:	14090103          	lb	sp,320(s2)
     520:	0100                	addi	s0,sp,128
     522:	1805                	addi	a6,a6,-31
     524:	0306                	slli	t1,t1,0x1
     526:	0905                	addi	s2,s2,1
     528:	0008                	0x8
     52a:	0501                	addi	a0,a0,0
     52c:	09010303          	lb	t1,144(sp)
     530:	0006                	c.slli	zero,0x1
     532:	0501                	addi	a0,a0,0
     534:	060a                	slli	a2,a2,0x2
     536:	00090003          	lb	zero,0(s2)
     53a:	0100                	addi	s0,sp,128
     53c:	0105                	addi	sp,sp,1
     53e:	14090103          	lb	sp,320(s2)
     542:	0100                	addi	s0,sp,128
     544:	2d05                	addiw	s10,s10,1
     546:	0306                	slli	t1,t1,0x1
     548:	0905                	addi	s2,s2,1
     54a:	0008                	0x8
     54c:	0501                	addi	a0,a0,0
     54e:	09010303          	lb	t1,144(sp)
     552:	0006                	c.slli	zero,0x1
     554:	0501                	addi	a0,a0,0
     556:	060a                	slli	a2,a2,0x2
     558:	00090003          	lb	zero,0(s2)
     55c:	0100                	addi	s0,sp,128
     55e:	0105                	addi	sp,sp,1
     560:	14090103          	lb	sp,320(s2)
     564:	0100                	addi	s0,sp,128
     566:	1d05                	addi	s10,s10,-31
     568:	0306                	slli	t1,t1,0x1
     56a:	0905                	addi	s2,s2,1
     56c:	0008                	0x8
     56e:	0501                	addi	a0,a0,0
     570:	09010303          	lb	t1,144(sp)
     574:	0006                	c.slli	zero,0x1
     576:	0501                	addi	a0,a0,0
     578:	060a                	slli	a2,a2,0x2
     57a:	00090003          	lb	zero,0(s2)
     57e:	0100                	addi	s0,sp,128
     580:	0105                	addi	sp,sp,1
     582:	14090103          	lb	sp,320(s2)
     586:	0100                	addi	s0,sp,128
     588:	1305                	addi	t1,t1,-31
     58a:	0306                	slli	t1,t1,0x1
     58c:	0905                	addi	s2,s2,1
     58e:	0008                	0x8
     590:	0501                	addi	a0,a0,0
     592:	09010303          	lb	t1,144(sp)
     596:	0006                	c.slli	zero,0x1
     598:	0501                	addi	a0,a0,0
     59a:	060a                	slli	a2,a2,0x2
     59c:	00090003          	lb	zero,0(s2)
     5a0:	0100                	addi	s0,sp,128
     5a2:	0105                	addi	sp,sp,1
     5a4:	14090103          	lb	sp,320(s2)
     5a8:	0100                	addi	s0,sp,128
     5aa:	1305                	addi	t1,t1,-31
     5ac:	0306                	slli	t1,t1,0x1
     5ae:	0905                	addi	s2,s2,1
     5b0:	0008                	0x8
     5b2:	0501                	addi	a0,a0,0
     5b4:	09010303          	lb	t1,144(sp)
     5b8:	0006                	c.slli	zero,0x1
     5ba:	0501                	addi	a0,a0,0
     5bc:	060a                	slli	a2,a2,0x2
     5be:	00090003          	lb	zero,0(s2)
     5c2:	0100                	addi	s0,sp,128
     5c4:	0105                	addi	sp,sp,1
     5c6:	14090103          	lb	sp,320(s2)
     5ca:	0100                	addi	s0,sp,128
     5cc:	0809                	addi	a6,a6,2
     5ce:	0000                	unimp
     5d0:	0101                	addi	sp,sp,0
     5d2:	0605                	addi	a2,a2,1
     5d4:	0000                	unimp
     5d6:	0005                	c.nop	1
     5d8:	0008                	0x8
     5da:	0040                	addi	s0,sp,4
     5dc:	0000                	unimp
     5de:	0101                	addi	sp,sp,0
     5e0:	fb01                	bnez	a4,4f0 <main-0xfbc0>
     5e2:	0d0e                	slli	s10,s10,0x3
     5e4:	0100                	addi	s0,sp,128
     5e6:	0101                	addi	sp,sp,0
     5e8:	0001                	nop
     5ea:	0000                	unimp
     5ec:	0001                	nop
     5ee:	0100                	addi	s0,sp,128
     5f0:	0101                	addi	sp,sp,0
     5f2:	041f 0000 0000      	0x41f
     5f8:	00b4                	addi	a3,sp,72
     5fa:	0000                	unimp
     5fc:	00e6                	slli	ra,ra,0x19
     5fe:	0000                	unimp
     600:	00b2                	slli	ra,ra,0xc
     602:	0000                	unimp
     604:	0102                	c.slli64	sp
     606:	021f 040f 0147      	0x147040f021f
     60c:	0000                	unimp
     60e:	4c00                	lw	s0,24(s0)
     610:	0001                	nop
     612:	0100                	addi	s0,sp,128
     614:	00000133          	add	sp,zero,zero
     618:	bd02                	fsd	ft0,184(sp)
     61a:	0001                	nop
     61c:	0300                	addi	s0,sp,384
     61e:	4105                	li	sp,1
     620:	0900                	addi	s0,sp,144
     622:	d402                	sw	zero,40(sp)
     624:	0104                	addi	s1,sp,128
     626:	0000                	unimp
     628:	0000                	unimp
     62a:	0300                	addi	s0,sp,384
     62c:	010a                	slli	sp,sp,0x2
     62e:	0305                	addi	t1,t1,1
     630:	04090103          	lb	sp,64(s2)
     634:	0100                	addi	s0,sp,128
     636:	00090103          	lb	sp,0(s2)
     63a:	0100                	addi	s0,sp,128
     63c:	00090103          	lb	sp,0(s2)
     640:	0100                	addi	s0,sp,128
     642:	00090203          	lb	tp,0(s2)
     646:	0100                	addi	s0,sp,128
     648:	0a05                	addi	s4,s4,1
     64a:	0306                	slli	t1,t1,0x1
     64c:	097e                	slli	s2,s2,0x1f
     64e:	0000                	unimp
     650:	0501                	addi	a0,a0,0
     652:	0308                	addi	a0,sp,384
     654:	097f                	0x97f
     656:	0002                	c.slli64	zero
     658:	0301                	addi	t1,t1,0
     65a:	097f                	0x97f
     65c:	0002                	c.slli64	zero
     65e:	0501                	addi	a0,a0,0
     660:	09040303          	lb	t1,144(s0)
     664:	0002                	c.slli64	zero
     666:	0501                	addi	a0,a0,0
     668:	0703060b          	0x703060b
     66c:	0209                	addi	tp,tp,2
     66e:	0100                	addi	s0,sp,128
     670:	00090103          	lb	sp,0(s2)
     674:	0100                	addi	s0,sp,128
     676:	0e05                	addi	t3,t3,1
     678:	0306                	slli	t1,t1,0x1
     67a:	0900                	addi	s0,sp,144
     67c:	0000                	unimp
     67e:	0501                	addi	a0,a0,0
     680:	001a                	c.slli	zero,0x6
     682:	0402                	c.slli64	s0
     684:	0601                	addi	a2,a2,0
     686:	08090003          	lb	zero,128(s2)
     68a:	0100                	addi	s0,sp,128
     68c:	1d05                	addi	s10,s10,-31
     68e:	0200                	addi	s0,sp,256
     690:	0104                	addi	s1,sp,128
     692:	0306                	slli	t1,t1,0x1
     694:	0900                	addi	s0,sp,144
     696:	0000                	unimp
     698:	0501                	addi	a0,a0,0
     69a:	04020027          	0x4020027
     69e:	0301                	addi	t1,t1,0
     6a0:	0900                	addi	s0,sp,144
     6a2:	0004                	0x4
     6a4:	0501                	addi	a0,a0,0
     6a6:	0103060b          	0x103060b
     6aa:	0809                	addi	a6,a6,2
     6ac:	0100                	addi	s0,sp,128
     6ae:	0e05                	addi	t3,t3,1
     6b0:	0306                	slli	t1,t1,0x1
     6b2:	0900                	addi	s0,sp,144
     6b4:	0000                	unimp
     6b6:	0501                	addi	a0,a0,0
     6b8:	001a                	c.slli	zero,0x6
     6ba:	0402                	c.slli64	s0
     6bc:	0601                	addi	a2,a2,0
     6be:	06090003          	lb	zero,96(s2)
     6c2:	0100                	addi	s0,sp,128
     6c4:	1d05                	addi	s10,s10,-31
     6c6:	0200                	addi	s0,sp,256
     6c8:	0104                	addi	s1,sp,128
     6ca:	0306                	slli	t1,t1,0x1
     6cc:	0900                	addi	s0,sp,144
     6ce:	0000                	unimp
     6d0:	0501                	addi	a0,a0,0
     6d2:	04020027          	0x4020027
     6d6:	0301                	addi	t1,t1,0
     6d8:	0900                	addi	s0,sp,144
     6da:	0002                	c.slli64	zero
     6dc:	0501                	addi	a0,a0,0
     6de:	0402000b          	0x402000b
     6e2:	0601                	addi	a2,a2,0
     6e4:	08090203          	lb	tp,128(s2)
     6e8:	0100                	addi	s0,sp,128
     6ea:	3105                	addiw	sp,sp,-31
     6ec:	0200                	addi	s0,sp,256
     6ee:	0104                	addi	s1,sp,128
     6f0:	0306                	slli	t1,t1,0x1
     6f2:	0900                	addi	s0,sp,144
     6f4:	0000                	unimp
     6f6:	0501                	addi	a0,a0,0
     6f8:	0402000b          	0x402000b
     6fc:	0604                	addi	s1,sp,768
     6fe:	0c090103          	lb	sp,192(s2)
     702:	0100                	addi	s0,sp,128
     704:	1005                	c.nop	-31
     706:	0200                	addi	s0,sp,256
     708:	0404                	addi	s1,sp,512
     70a:	00090003          	lb	zero,0(s2)
     70e:	0100                	addi	s0,sp,128
     710:	1405                	addi	s0,s0,-31
     712:	0200                	addi	s0,sp,256
     714:	0404                	addi	s1,sp,512
     716:	0306                	slli	t1,t1,0x1
     718:	0900                	addi	s0,sp,144
     71a:	0000                	unimp
     71c:	0301                	addi	t1,t1,0
     71e:	0900                	addi	s0,sp,144
     720:	0002                	c.slli64	zero
     722:	0501                	addi	a0,a0,0
     724:	7f03060b          	0x7f03060b
     728:	0409                	addi	s0,s0,2
     72a:	0100                	addi	s0,sp,128
     72c:	3105                	addiw	sp,sp,-31
     72e:	0306                	slli	t1,t1,0x1
     730:	0900                	addi	s0,sp,144
     732:	0000                	unimp
     734:	0501                	addi	a0,a0,0
     736:	09000333          	0x9000333
     73a:	0008                	0x8
     73c:	0501                	addi	a0,a0,0
     73e:	0331                	addi	t1,t1,12
     740:	0900                	addi	s0,sp,144
     742:	000c                	0xc
     744:	0501                	addi	a0,a0,0
     746:	0029                	c.nop	10
     748:	0402                	c.slli64	s0
     74a:	09030303          	lb	t1,144(t1)
     74e:	0004                	0x4
     750:	0501                	addi	a0,a0,0
     752:	001f 0402 0305      	0x3050402001f
     758:	0900                	addi	s0,sp,144
     75a:	0004                	0x4
     75c:	0501                	addi	a0,a0,0
     75e:	0029                	c.nop	10
     760:	0402                	c.slli64	s0
     762:	0305                	addi	t1,t1,1
     764:	0900                	addi	s0,sp,144
     766:	0002                	c.slli64	zero
     768:	0501                	addi	a0,a0,0
     76a:	0051                	c.nop	20
     76c:	0402                	c.slli64	s0
     76e:	0606                	slli	a2,a2,0x1
     770:	04097e03          	0x4097e03
     774:	0100                	addi	s0,sp,128
     776:	1005                	c.nop	-31
     778:	0200                	addi	s0,sp,256
     77a:	0604                	addi	s1,sp,768
     77c:	0306                	slli	t1,t1,0x1
     77e:	0902                	c.slli64	s2
     780:	0002                	c.slli64	zero
     782:	0501                	addi	a0,a0,0
     784:	004a                	c.slli	zero,0x12
     786:	0402                	c.slli64	s0
     788:	0605                	addi	a2,a2,1
     78a:	02097e03          	0x2097e03
     78e:	0100                	addi	s0,sp,128
     790:	0d05                	addi	s10,s10,1
     792:	04090103          	lb	sp,64(s2)
     796:	0100                	addi	s0,sp,128
     798:	2005                	0x2005
     79a:	0306                	slli	t1,t1,0x1
     79c:	0900                	addi	s0,sp,144
     79e:	0000                	unimp
     7a0:	0501                	addi	a0,a0,0
     7a2:	031a                	slli	t1,t1,0x6
     7a4:	0900                	addi	s0,sp,144
     7a6:	0004                	0x4
     7a8:	0501                	addi	a0,a0,0
     7aa:	0311                	addi	t1,t1,4
     7ac:	0900                	addi	s0,sp,144
     7ae:	0004                	0x4
     7b0:	0501                	addi	a0,a0,0
     7b2:	060d                	addi	a2,a2,3
     7b4:	02090103          	lb	sp,32(s2)
     7b8:	0100                	addi	s0,sp,128
     7ba:	1005                	c.nop	-31
     7bc:	0306                	slli	t1,t1,0x1
     7be:	0900                	addi	s0,sp,144
     7c0:	0000                	unimp
     7c2:	0501                	addi	a0,a0,0
     7c4:	001c                	0x1c
     7c6:	0402                	c.slli64	s0
     7c8:	0601                	addi	a2,a2,0
     7ca:	08090003          	lb	zero,128(s2)
     7ce:	0100                	addi	s0,sp,128
     7d0:	2905                	addiw	s2,s2,1
     7d2:	0200                	addi	s0,sp,256
     7d4:	0104                	addi	s1,sp,128
     7d6:	0306                	slli	t1,t1,0x1
     7d8:	0900                	addi	s0,sp,144
     7da:	0000                	unimp
     7dc:	0001                	nop
     7de:	0402                	c.slli64	s0
     7e0:	0302                	c.slli64	t1
     7e2:	0900                	addi	s0,sp,144
     7e4:	0006                	c.slli	zero,0x1
     7e6:	0501                	addi	a0,a0,0
     7e8:	0314                	addi	a3,sp,384
     7ea:	097e                	slli	s2,s2,0x1f
     7ec:	0006                	c.slli	zero,0x1
     7ee:	0501                	addi	a0,a0,0
     7f0:	09040313          	addi	t1,s0,144
     7f4:	0004                	0x4
     7f6:	0501                	addi	a0,a0,0
     7f8:	0312                	slli	t1,t1,0x4
     7fa:	0901                	addi	s2,s2,0
     7fc:	0002                	c.slli64	zero
     7fe:	0501                	addi	a0,a0,0
     800:	0403060b          	0x403060b
     804:	0409                	addi	s0,s0,2
     806:	0100                	addi	s0,sp,128
     808:	3105                	addiw	sp,sp,-31
     80a:	0306                	slli	t1,t1,0x1
     80c:	0900                	addi	s0,sp,144
     80e:	0000                	unimp
     810:	0501                	addi	a0,a0,0
     812:	0402000b          	0x402000b
     816:	0604                	addi	s1,sp,768
     818:	10090103          	lb	sp,256(s2)
     81c:	0100                	addi	s0,sp,128
     81e:	0e05                	addi	t3,t3,1
     820:	0200                	addi	s0,sp,256
     822:	0404                	addi	s1,sp,512
     824:	0306                	slli	t1,t1,0x1
     826:	0900                	addi	s0,sp,144
     828:	0000                	unimp
     82a:	0501                	addi	a0,a0,0
     82c:	0403060b          	0x403060b
     830:	0409                	addi	s0,s0,2
     832:	0100                	addi	s0,sp,128
     834:	00090103          	lb	sp,0(s2)
     838:	0100                	addi	s0,sp,128
     83a:	1005                	c.nop	-31
     83c:	00090003          	lb	zero,0(s2)
     840:	0100                	addi	s0,sp,128
     842:	1505                	addi	a0,a0,-31
     844:	0306                	slli	t1,t1,0x1
     846:	0900                	addi	s0,sp,144
     848:	0000                	unimp
     84a:	0501                	addi	a0,a0,0
     84c:	0310                	addi	a2,sp,384
     84e:	097f                	0x97f
     850:	0002                	c.slli64	zero
     852:	0501                	addi	a0,a0,0
     854:	0901030b          	0x901030b
     858:	0002                	c.slli64	zero
     85a:	0501                	addi	a0,a0,0
     85c:	097a0333          	0x97a0333
     860:	0002                	c.slli64	zero
     862:	0501                	addi	a0,a0,0
     864:	060d                	addi	a2,a2,3
     866:	0e090203          	lb	tp,224(s2)
     86a:	0100                	addi	s0,sp,128
     86c:	1105                	addi	sp,sp,-31
     86e:	0306                	slli	t1,t1,0x1
     870:	0900                	addi	s0,sp,144
     872:	0000                	unimp
     874:	0501                	addi	a0,a0,0
     876:	060d                	addi	a2,a2,3
     878:	04090103          	lb	sp,64(s2)
     87c:	0100                	addi	s0,sp,128
     87e:	1005                	c.nop	-31
     880:	0306                	slli	t1,t1,0x1
     882:	0900                	addi	s0,sp,144
     884:	0000                	unimp
     886:	0501                	addi	a0,a0,0
     888:	001c                	0x1c
     88a:	0402                	c.slli64	s0
     88c:	0601                	addi	a2,a2,0
     88e:	08090003          	lb	zero,128(s2)
     892:	0100                	addi	s0,sp,128
     894:	1f05                	addi	t5,t5,-31
     896:	0200                	addi	s0,sp,256
     898:	0104                	addi	s1,sp,128
     89a:	0306                	slli	t1,t1,0x1
     89c:	0900                	addi	s0,sp,144
     89e:	0000                	unimp
     8a0:	0501                	addi	a0,a0,0
     8a2:	0029                	c.nop	10
     8a4:	0402                	c.slli64	s0
     8a6:	0301                	addi	t1,t1,0
     8a8:	0900                	addi	s0,sp,144
     8aa:	0002                	c.slli64	zero
     8ac:	0501                	addi	a0,a0,0
     8ae:	0010                	0x10
     8b0:	0402                	c.slli64	s0
     8b2:	0301                	addi	t1,t1,0
     8b4:	0900                	addi	s0,sp,144
     8b6:	0008                	0x8
     8b8:	0301                	addi	t1,t1,0
     8ba:	0900                	addi	s0,sp,144
     8bc:	0004                	0x4
     8be:	0501                	addi	a0,a0,0
     8c0:	0402002f          	0x402002f
     8c4:	03030603          	lb	a2,48(t1)
     8c8:	0409                	addi	s0,s0,2
     8ca:	0100                	addi	s0,sp,128
     8cc:	1f05                	addi	t5,t5,-31
     8ce:	0200                	addi	s0,sp,256
     8d0:	0104                	addi	s1,sp,128
     8d2:	02090003          	lb	zero,32(s2)
     8d6:	0100                	addi	s0,sp,128
     8d8:	2205                	addiw	tp,tp,1
     8da:	0200                	addi	s0,sp,256
     8dc:	0104                	addi	s1,sp,128
     8de:	0306                	slli	t1,t1,0x1
     8e0:	0900                	addi	s0,sp,144
     8e2:	0000                	unimp
     8e4:	0501                	addi	a0,a0,0
     8e6:	001f 0402 0301      	0x3010402001f
     8ec:	0900                	addi	s0,sp,144
     8ee:	0006                	c.slli	zero,0x1
     8f0:	0501                	addi	a0,a0,0
     8f2:	0203060b          	0x203060b
     8f6:	0209                	addi	tp,tp,2
     8f8:	0100                	addi	s0,sp,128
     8fa:	1005                	c.nop	-31
     8fc:	00090003          	lb	zero,0(s2)
     900:	0100                	addi	s0,sp,128
     902:	1405                	addi	s0,s0,-31
     904:	0306                	slli	t1,t1,0x1
     906:	0900                	addi	s0,sp,144
     908:	0000                	unimp
     90a:	0501                	addi	a0,a0,0
     90c:	0900030b          	0x900030b
     910:	0004                	0x4
     912:	0501                	addi	a0,a0,0
     914:	000d                	c.nop	3
     916:	0402                	c.slli64	s0
     918:	0602                	c.slli64	a2
     91a:	02090203          	lb	tp,32(s2)
     91e:	0100                	addi	s0,sp,128
     920:	1105                	addi	sp,sp,-31
     922:	0200                	addi	s0,sp,256
     924:	0204                	addi	s1,sp,256
     926:	0306                	slli	t1,t1,0x1
     928:	0900                	addi	s0,sp,144
     92a:	0000                	unimp
     92c:	0501                	addi	a0,a0,0
     92e:	002d                	c.nop	11
     930:	0402                	c.slli64	s0
     932:	0602                	c.slli64	a2
     934:	06097e03          	0x6097e03
     938:	0100                	addi	s0,sp,128
     93a:	2605                	addiw	a2,a2,1
     93c:	0200                	addi	s0,sp,256
     93e:	0104                	addi	s1,sp,128
     940:	02090003          	lb	zero,32(s2)
     944:	0100                	addi	s0,sp,128
     946:	0d05                	addi	s10,s10,1
     948:	04090103          	lb	sp,64(s2)
     94c:	0100                	addi	s0,sp,128
     94e:	1505                	addi	a0,a0,-31
     950:	0306                	slli	t1,t1,0x1
     952:	0900                	addi	s0,sp,144
     954:	0000                	unimp
     956:	0501                	addi	a0,a0,0
     958:	0319                	addi	t1,t1,6
     95a:	0900                	addi	s0,sp,144
     95c:	0004                	0x4
     95e:	0501                	addi	a0,a0,0
     960:	0310                	addi	a2,sp,384
     962:	0900                	addi	s0,sp,144
     964:	0004                	0x4
     966:	0501                	addi	a0,a0,0
     968:	0022                	c.slli	zero,0x8
     96a:	0402                	c.slli64	s0
     96c:	0601                	addi	a2,a2,0
     96e:	04090003          	lb	zero,64(s2)
     972:	0100                	addi	s0,sp,128
     974:	3c05                	addiw	s8,s8,-31
     976:	0200                	addi	s0,sp,256
     978:	0104                	addi	s1,sp,128
     97a:	0306                	slli	t1,t1,0x1
     97c:	0900                	addi	s0,sp,144
     97e:	0000                	unimp
     980:	0501                	addi	a0,a0,0
     982:	0025                	c.nop	9
     984:	0402                	c.slli64	s0
     986:	0301                	addi	t1,t1,0
     988:	0900                	addi	s0,sp,144
     98a:	0006                	c.slli	zero,0x1
     98c:	0501                	addi	a0,a0,0
     98e:	0035                	c.nop	13
     990:	0402                	c.slli64	s0
     992:	0301                	addi	t1,t1,0
     994:	0900                	addi	s0,sp,144
     996:	0002                	c.slli64	zero
     998:	0501                	addi	a0,a0,0
     99a:	0402002f          	0x402002f
     99e:	0301                	addi	t1,t1,0
     9a0:	0900                	addi	s0,sp,144
     9a2:	0004                	0x4
     9a4:	0501                	addi	a0,a0,0
     9a6:	0303060b          	0x303060b
     9aa:	0609                	addi	a2,a2,2
     9ac:	0100                	addi	s0,sp,128
     9ae:	0f05                	addi	t5,t5,1
     9b0:	0306                	slli	t1,t1,0x1
     9b2:	0900                	addi	s0,sp,144
     9b4:	0000                	unimp
     9b6:	0501                	addi	a0,a0,0
     9b8:	0103060b          	0x103060b
     9bc:	0209                	addi	tp,tp,2
     9be:	0100                	addi	s0,sp,128
     9c0:	00090103          	lb	sp,0(s2)
     9c4:	0100                	addi	s0,sp,128
     9c6:	00090103          	lb	sp,0(s2)
     9ca:	0100                	addi	s0,sp,128
     9cc:	1305                	addi	t1,t1,-31
     9ce:	0306                	slli	t1,t1,0x1
     9d0:	097e                	slli	s2,s2,0x1f
     9d2:	0000                	unimp
     9d4:	0501                	addi	a0,a0,0
     9d6:	0312                	slli	t1,t1,0x4
     9d8:	0901                	addi	s2,s2,0
     9da:	0002                	c.slli64	zero
     9dc:	0501                	addi	a0,a0,0
     9de:	0901030b          	0x901030b
     9e2:	0002                	c.slli64	zero
     9e4:	0601                	addi	a2,a2,0
     9e6:	02090303          	lb	t1,32(s2)
     9ea:	0100                	addi	s0,sp,128
     9ec:	1705                	addi	a4,a4,-31
     9ee:	0306                	slli	t1,t1,0x1
     9f0:	0900                	addi	s0,sp,144
     9f2:	0000                	unimp
     9f4:	0501                	addi	a0,a0,0
     9f6:	0103060b          	0x103060b
     9fa:	0a09                	addi	s4,s4,2
     9fc:	0100                	addi	s0,sp,128
     9fe:	1105                	addi	sp,sp,-31
     a00:	0306                	slli	t1,t1,0x1
     a02:	0900                	addi	s0,sp,144
     a04:	0000                	unimp
     a06:	0501                	addi	a0,a0,0
     a08:	060d                	addi	a2,a2,3
     a0a:	02090203          	lb	tp,32(s2)
     a0e:	0100                	addi	s0,sp,128
     a10:	0f05                	addi	t5,t5,1
     a12:	0306                	slli	t1,t1,0x1
     a14:	0900                	addi	s0,sp,144
     a16:	0000                	unimp
     a18:	0501                	addi	a0,a0,0
     a1a:	0310                	addi	a2,sp,384
     a1c:	097f                	0x97f
     a1e:	0002                	c.slli64	zero
     a20:	0501                	addi	a0,a0,0
     a22:	0612                	slli	a2,a2,0x4
     a24:	02097f03          	0x2097f03
     a28:	0100                	addi	s0,sp,128
     a2a:	0d05                	addi	s10,s10,1
     a2c:	08090103          	lb	sp,128(s2)
     a30:	0100                	addi	s0,sp,128
     a32:	1005                	c.nop	-31
     a34:	0306                	slli	t1,t1,0x1
     a36:	0900                	addi	s0,sp,144
     a38:	0000                	unimp
     a3a:	0501                	addi	a0,a0,0
     a3c:	001c                	0x1c
     a3e:	0402                	c.slli64	s0
     a40:	0601                	addi	a2,a2,0
     a42:	08090003          	lb	zero,128(s2)
     a46:	0100                	addi	s0,sp,128
     a48:	1f05                	addi	t5,t5,-31
     a4a:	0200                	addi	s0,sp,256
     a4c:	0104                	addi	s1,sp,128
     a4e:	0306                	slli	t1,t1,0x1
     a50:	0900                	addi	s0,sp,144
     a52:	0000                	unimp
     a54:	0501                	addi	a0,a0,0
     a56:	0029                	c.nop	10
     a58:	0402                	c.slli64	s0
     a5a:	0301                	addi	t1,t1,0
     a5c:	0900                	addi	s0,sp,144
     a5e:	0002                	c.slli64	zero
     a60:	0501                	addi	a0,a0,0
     a62:	09030313          	addi	t1,t1,144
     a66:	0006                	c.slli	zero,0x1
     a68:	0501                	addi	a0,a0,0
     a6a:	0312                	slli	t1,t1,0x4
     a6c:	0901                	addi	s2,s2,0
     a6e:	0002                	c.slli64	zero
     a70:	0501                	addi	a0,a0,0
     a72:	0403060b          	0x403060b
     a76:	0409                	addi	s0,s0,2
     a78:	0100                	addi	s0,sp,128
     a7a:	0e05                	addi	t3,t3,1
     a7c:	0306                	slli	t1,t1,0x1
     a7e:	0900                	addi	s0,sp,144
     a80:	0000                	unimp
     a82:	0501                	addi	a0,a0,0
     a84:	061a                	slli	a2,a2,0x6
     a86:	08090003          	lb	zero,128(s2)
     a8a:	0100                	addi	s0,sp,128
     a8c:	2f05                	addiw	t5,t5,1
     a8e:	0306                	slli	t1,t1,0x1
     a90:	0900                	addi	s0,sp,144
     a92:	0000                	unimp
     a94:	0501                	addi	a0,a0,0
     a96:	031d                	addi	t1,t1,7
     a98:	0900                	addi	s0,sp,144
     a9a:	0008                	0x8
     a9c:	0501                	addi	a0,a0,0
     a9e:	0329                	addi	t1,t1,10
     aa0:	0900                	addi	s0,sp,144
     aa2:	0002                	c.slli64	zero
     aa4:	0501                	addi	a0,a0,0
     aa6:	09000327          	0x9000327
     aaa:	0004                	0x4
     aac:	0501                	addi	a0,a0,0
     aae:	030e                	slli	t1,t1,0x3
     ab0:	0900                	addi	s0,sp,144
     ab2:	0004                	0x4
     ab4:	0501                	addi	a0,a0,0
     ab6:	09010313          	addi	t1,sp,144
     aba:	0002                	c.slli64	zero
     abc:	0501                	addi	a0,a0,0
     abe:	0312                	slli	t1,t1,0x4
     ac0:	0901                	addi	s2,s2,0
     ac2:	0002                	c.slli64	zero
     ac4:	0501                	addi	a0,a0,0
     ac6:	060c                	addi	a1,sp,768
     ac8:	04090603          	lb	a2,64(s2)
     acc:	0100                	addi	s0,sp,128
     ace:	0f05                	addi	t5,t5,1
     ad0:	0306                	slli	t1,t1,0x1
     ad2:	0900                	addi	s0,sp,144
     ad4:	0000                	unimp
     ad6:	0501                	addi	a0,a0,0
     ad8:	060a                	slli	a2,a2,0x2
     ada:	08090203          	lb	tp,128(s2)
     ade:	0100                	addi	s0,sp,128
     ae0:	0d05                	addi	s10,s10,1
     ae2:	0306                	slli	t1,t1,0x1
     ae4:	0900                	addi	s0,sp,144
     ae6:	0000                	unimp
     ae8:	0501                	addi	a0,a0,0
     aea:	01030607          	0x1030607
     aee:	0809                	addi	a6,a6,2
     af0:	0100                	addi	s0,sp,128
     af2:	0a05                	addi	s4,s4,1
     af4:	0306                	slli	t1,t1,0x1
     af6:	0900                	addi	s0,sp,144
     af8:	0000                	unimp
     afa:	0501                	addi	a0,a0,0
     afc:	0314                	addi	a3,sp,384
     afe:	0900                	addi	s0,sp,144
     b00:	0002                	c.slli64	zero
     b02:	0501                	addi	a0,a0,0
     b04:	030d                	addi	t1,t1,3
     b06:	097f                	0x97f
     b08:	0004                	0x4
     b0a:	0501                	addi	a0,a0,0
     b0c:	09490313          	addi	t1,s2,148
     b10:	0004                	0x4
     b12:	0501                	addi	a0,a0,0
     b14:	030e                	slli	t1,t1,0x3
     b16:	092d                	addi	s2,s2,11
     b18:	0004                	0x4
     b1a:	0501                	addi	a0,a0,0
     b1c:	09010313          	addi	t1,sp,144
     b20:	0002                	c.slli64	zero
     b22:	0501                	addi	a0,a0,0
     b24:	0312                	slli	t1,t1,0x4
     b26:	0901                	addi	s2,s2,0
     b28:	0002                	c.slli64	zero
     b2a:	0501                	addi	a0,a0,0
     b2c:	030e                	slli	t1,t1,0x3
     b2e:	00040907          	0x40907
     b32:	0501                	addi	a0,a0,0
     b34:	4603060f          	0x4603060f
     b38:	0209                	addi	tp,tp,2
     b3a:	0100                	addi	s0,sp,128
     b3c:	0a05                	addi	s4,s4,1
     b3e:	0200                	addi	s0,sp,256
     b40:	0104                	addi	s1,sp,128
     b42:	02090003          	lb	zero,32(s2)
     b46:	0100                	addi	s0,sp,128
     b48:	0505                	addi	a0,a0,1
     b4a:	06090103          	lb	sp,96(s2)
     b4e:	0100                	addi	s0,sp,128
     b50:	0805                	addi	a6,a6,1
     b52:	0306                	slli	t1,t1,0x1
     b54:	0900                	addi	s0,sp,144
     b56:	0000                	unimp
     b58:	0501                	addi	a0,a0,0
     b5a:	01030607          	0x1030607
     b5e:	0209                	addi	tp,tp,2
     b60:	0100                	addi	s0,sp,128
     b62:	0d05                	addi	s10,s10,1
     b64:	0306                	slli	t1,t1,0x1
     b66:	0939                	addi	s2,s2,14
     b68:	0022                	c.slli	zero,0x8
     b6a:	0501                	addi	a0,a0,0
     b6c:	03030603          	lb	a2,48(t1)
     b70:	0409                	addi	s0,s0,2
     b72:	0100                	addi	s0,sp,128
     b74:	0605                	addi	a2,a2,1
     b76:	0306                	slli	t1,t1,0x1
     b78:	0900                	addi	s0,sp,144
     b7a:	0000                	unimp
     b7c:	0501                	addi	a0,a0,0
     b7e:	0605                	addi	a2,a2,1
     b80:	04090103          	lb	sp,64(s2)
     b84:	0100                	addi	s0,sp,128
     b86:	0805                	addi	a6,a6,1
     b88:	0306                	slli	t1,t1,0x1
     b8a:	0900                	addi	s0,sp,144
     b8c:	0000                	unimp
     b8e:	0501                	addi	a0,a0,0
     b90:	030e                	slli	t1,t1,0x3
     b92:	0900                	addi	s0,sp,144
     b94:	0002                	c.slli64	zero
     b96:	0501                	addi	a0,a0,0
     b98:	03030603          	lb	a2,48(t1)
     b9c:	0409                	addi	s0,s0,2
     b9e:	0100                	addi	s0,sp,128
     ba0:	0105                	addi	sp,sp,1
     ba2:	0306                	slli	t1,t1,0x1
     ba4:	0901                	addi	s2,s2,0
     ba6:	0000                	unimp
     ba8:	0501                	addi	a0,a0,0
     baa:	0608                	addi	a0,sp,768
     bac:	08097d03          	0x8097d03
     bb0:	0100                	addi	s0,sp,128
     bb2:	0b05                	addi	s6,s6,1
     bb4:	0306                	slli	t1,t1,0x1
     bb6:	0900                	addi	s0,sp,144
     bb8:	0000                	unimp
     bba:	0501                	addi	a0,a0,0
     bbc:	0605                	addi	a2,a2,1
     bbe:	02090103          	lb	sp,32(s2)
     bc2:	0100                	addi	s0,sp,128
     bc4:	0805                	addi	a6,a6,1
     bc6:	0306                	slli	t1,t1,0x1
     bc8:	0900                	addi	s0,sp,144
     bca:	0000                	unimp
     bcc:	0501                	addi	a0,a0,0
     bce:	0310                	addi	a2,sp,384
     bd0:	0900                	addi	s0,sp,144
     bd2:	0004                	0x4
     bd4:	0901                	addi	s2,s2,0
     bd6:	0006                	c.slli	zero,0x1
     bd8:	0100                	addi	s0,sp,128
     bda:	7601                	lui	a2,0xfffe0
     bdc:	0009                	c.nop	2
     bde:	0500                	addi	s0,sp,640
     be0:	0800                	addi	s0,sp,16
     be2:	4900                	lw	s0,16(a0)
     be4:	0000                	unimp
     be6:	0100                	addi	s0,sp,128
     be8:	0101                	addi	sp,sp,0
     bea:	000d0efb          	0xd0efb
     bee:	0101                	addi	sp,sp,0
     bf0:	0101                	addi	sp,sp,0
     bf2:	0000                	unimp
     bf4:	0100                	addi	s0,sp,128
     bf6:	0000                	unimp
     bf8:	0101                	addi	sp,sp,0
     bfa:	1f01                	addi	t5,t5,-32
     bfc:	0005                	c.nop	1
     bfe:	0000                	unimp
     c00:	b400                	fsd	fs0,40(s0)
     c02:	0000                	unimp
     c04:	e600                	sd	s0,8(a2)
     c06:	0000                	unimp
     c08:	6500                	ld	s0,8(a0)
     c0a:	0001                	nop
     c0c:	7000                	ld	s0,32(s0)
     c0e:	0000                	unimp
     c10:	0200                	addi	s0,sp,256
     c12:	1f01                	addi	t5,t5,-32
     c14:	0f02                	c.slli64	t5
     c16:	5705                	li	a4,-31
     c18:	0001                	nop
     c1a:	0000                	unimp
     c1c:	015c                	addi	a5,sp,132
     c1e:	0000                	unimp
     c20:	ab01                	j	1130 <main-0xef80>
     c22:	0001                	nop
     c24:	0200                	addi	s0,sp,256
     c26:	01b4                	addi	a3,sp,200
     c28:	0000                	unimp
     c2a:	0001c503          	lbu	a0,0(gp) # 12204 <__global_pointer$>
     c2e:	0400                	addi	s0,sp,512
     c30:	3705                	addiw	a4,a4,-31
     c32:	0900                	addi	s0,sp,144
     c34:	b602                	fsd	ft0,296(sp)
     c36:	0106                	slli	sp,sp,0x1
     c38:	0000                	unimp
     c3a:	0000                	unimp
     c3c:	1900                	addi	s0,sp,176
     c3e:	0305                	addi	t1,t1,1
     c40:	00090103          	lb	sp,0(s2)
     c44:	0100                	addi	s0,sp,128
     c46:	00090103          	lb	sp,0(s2)
     c4a:	0100                	addi	s0,sp,128
     c4c:	00090203          	lb	tp,0(s2)
     c50:	0100                	addi	s0,sp,128
     c52:	1905                	addi	s2,s2,-31
     c54:	0306                	slli	t1,t1,0x1
     c56:	0900                	addi	s0,sp,144
     c58:	0000                	unimp
     c5a:	0501                	addi	a0,a0,0
     c5c:	0900032b          	0x900032b
     c60:	0004                	0x4
     c62:	0501                	addi	a0,a0,0
     c64:	0306                	slli	t1,t1,0x1
     c66:	0900                	addi	s0,sp,144
     c68:	0002                	c.slli64	zero
     c6a:	0501                	addi	a0,a0,0
     c6c:	0309                	addi	t1,t1,2
     c6e:	097e                	slli	s2,s2,0x1f
     c70:	0002                	c.slli64	zero
     c72:	0501                	addi	a0,a0,0
     c74:	0615                	addi	a2,a2,5
     c76:	06090303          	lb	t1,96(s2)
     c7a:	0100                	addi	s0,sp,128
     c7c:	2305                	addiw	t1,t1,1
     c7e:	0306                	slli	t1,t1,0x1
     c80:	0900                	addi	s0,sp,144
     c82:	0000                	unimp
     c84:	0501                	addi	a0,a0,0
     c86:	0315                	addi	t1,t1,5
     c88:	0900                	addi	s0,sp,144
     c8a:	0006                	c.slli	zero,0x1
     c8c:	0501                	addi	a0,a0,0
     c8e:	01030607          	0x1030607
     c92:	0409                	addi	s0,s0,2
     c94:	0100                	addi	s0,sp,128
     c96:	1805                	addi	a6,a6,-31
     c98:	0306                	slli	t1,t1,0x1
     c9a:	0900                	addi	s0,sp,144
     c9c:	0000                	unimp
     c9e:	0501                	addi	a0,a0,0
     ca0:	0316                	slli	t1,t1,0x5
     ca2:	0900                	addi	s0,sp,144
     ca4:	0002                	c.slli64	zero
     ca6:	0501                	addi	a0,a0,0
     ca8:	01030607          	0x1030607
     cac:	0209                	addi	tp,tp,2
     cae:	0100                	addi	s0,sp,128
     cb0:	0905                	addi	s2,s2,1
     cb2:	0306                	slli	t1,t1,0x1
     cb4:	0900                	addi	s0,sp,144
     cb6:	0000                	unimp
     cb8:	0501                	addi	a0,a0,0
     cba:	01030607          	0x1030607
     cbe:	0209                	addi	tp,tp,2
     cc0:	0100                	addi	s0,sp,128
     cc2:	0905                	addi	s2,s2,1
     cc4:	0306                	slli	t1,t1,0x1
     cc6:	0900                	addi	s0,sp,144
     cc8:	0000                	unimp
     cca:	0501                	addi	a0,a0,0
     ccc:	04020023          	sb	zero,64(tp) # 40 <main-0x10070>
     cd0:	0602                	c.slli64	a2
     cd2:	04090403          	lb	s0,64(s2)
     cd6:	0100                	addi	s0,sp,128
     cd8:	2a05                	addiw	s4,s4,1
     cda:	0200                	addi	s0,sp,256
     cdc:	0204                	addi	s1,sp,256
     cde:	0306                	slli	t1,t1,0x1
     ce0:	0900                	addi	s0,sp,144
     ce2:	0000                	unimp
     ce4:	0501                	addi	a0,a0,0
     ce6:	0028                	addi	a0,sp,8
     ce8:	0402                	c.slli64	s0
     cea:	0302                	c.slli64	t1
     cec:	0900                	addi	s0,sp,144
     cee:	0004                	0x4
     cf0:	0501                	addi	a0,a0,0
     cf2:	0025                	c.nop	9
     cf4:	0402                	c.slli64	s0
     cf6:	0302                	c.slli64	t1
     cf8:	0900                	addi	s0,sp,144
     cfa:	0004                	0x4
     cfc:	0501                	addi	a0,a0,0
     cfe:	002c                	addi	a1,sp,8
     d00:	0402                	c.slli64	s0
     d02:	0302                	c.slli64	t1
     d04:	0900                	addi	s0,sp,144
     d06:	0002                	c.slli64	zero
     d08:	0501                	addi	a0,a0,0
     d0a:	000c                	0xc
     d0c:	0402                	c.slli64	s0
     d0e:	0601                	addi	a2,a2,0
     d10:	02090003          	lb	zero,32(s2)
     d14:	0100                	addi	s0,sp,128
     d16:	1b05                	addi	s6,s6,-31
     d18:	0200                	addi	s0,sp,256
     d1a:	0104                	addi	s1,sp,128
     d1c:	0306                	slli	t1,t1,0x1
     d1e:	0900                	addi	s0,sp,144
     d20:	0000                	unimp
     d22:	0501                	addi	a0,a0,0
     d24:	000c                	0xc
     d26:	0402                	c.slli64	s0
     d28:	0301                	addi	t1,t1,0
     d2a:	0900                	addi	s0,sp,144
     d2c:	0004                	0x4
     d2e:	0501                	addi	a0,a0,0
     d30:	02030603          	lb	a2,32(t1)
     d34:	0409                	addi	s0,s0,2
     d36:	0100                	addi	s0,sp,128
     d38:	0105                	addi	sp,sp,1
     d3a:	0306                	slli	t1,t1,0x1
     d3c:	0901                	addi	s2,s2,0
     d3e:	0000                	unimp
     d40:	0501                	addi	a0,a0,0
     d42:	0630                	addi	a2,sp,776
     d44:	02090203          	lb	tp,32(s2)
     d48:	0100                	addi	s0,sp,128
     d4a:	0305                	addi	t1,t1,1
     d4c:	00090103          	lb	sp,0(s2)
     d50:	0100                	addi	s0,sp,128
     d52:	1905                	addi	s2,s2,-31
     d54:	0306                	slli	t1,t1,0x1
     d56:	0900                	addi	s0,sp,144
     d58:	0000                	unimp
     d5a:	0501                	addi	a0,a0,0
     d5c:	0320                	addi	s0,sp,392
     d5e:	0900                	addi	s0,sp,144
     d60:	0004                	0x4
     d62:	0501                	addi	a0,a0,0
     d64:	0306                	slli	t1,t1,0x1
     d66:	0900                	addi	s0,sp,144
     d68:	0002                	c.slli64	zero
     d6a:	0501                	addi	a0,a0,0
     d6c:	0605                	addi	a2,a2,1
     d6e:	02090103          	lb	sp,32(s2)
     d72:	0100                	addi	s0,sp,128
     d74:	0f05                	addi	t5,t5,1
     d76:	0306                	slli	t1,t1,0x1
     d78:	0900                	addi	s0,sp,144
     d7a:	0000                	unimp
     d7c:	0501                	addi	a0,a0,0
     d7e:	0605                	addi	a2,a2,1
     d80:	04090103          	lb	sp,64(s2)
     d84:	0100                	addi	s0,sp,128
     d86:	1205                	addi	tp,tp,-31
     d88:	0306                	slli	t1,t1,0x1
     d8a:	0900                	addi	s0,sp,144
     d8c:	0000                	unimp
     d8e:	0501                	addi	a0,a0,0
     d90:	030a                	slli	t1,t1,0x2
     d92:	0900                	addi	s0,sp,144
     d94:	0004                	0x4
     d96:	0501                	addi	a0,a0,0
     d98:	0605                	addi	a2,a2,1
     d9a:	02090103          	lb	sp,32(s2)
     d9e:	0100                	addi	s0,sp,128
     da0:	1205                	addi	tp,tp,-31
     da2:	0306                	slli	t1,t1,0x1
     da4:	0900                	addi	s0,sp,144
     da6:	0000                	unimp
     da8:	0501                	addi	a0,a0,0
     daa:	030a                	slli	t1,t1,0x2
     dac:	0900                	addi	s0,sp,144
     dae:	0004                	0x4
     db0:	0501                	addi	a0,a0,0
     db2:	0605                	addi	a2,a2,1
     db4:	02090103          	lb	sp,32(s2)
     db8:	0100                	addi	s0,sp,128
     dba:	1805                	addi	a6,a6,-31
     dbc:	0306                	slli	t1,t1,0x1
     dbe:	0900                	addi	s0,sp,144
     dc0:	0000                	unimp
     dc2:	0501                	addi	a0,a0,0
     dc4:	030a                	slli	t1,t1,0x2
     dc6:	0900                	addi	s0,sp,144
     dc8:	0004                	0x4
     dca:	0501                	addi	a0,a0,0
     dcc:	0605                	addi	a2,a2,1
     dce:	02090203          	lb	tp,32(s2)
     dd2:	0100                	addi	s0,sp,128
     dd4:	00090103          	lb	sp,0(s2)
     dd8:	0100                	addi	s0,sp,128
     dda:	1005                	c.nop	-31
     ddc:	0306                	slli	t1,t1,0x1
     dde:	097f                	0x97f
     de0:	0000                	unimp
     de2:	0501                	addi	a0,a0,0
     de4:	0901030b          	0x901030b
     de8:	0002                	c.slli64	zero
     dea:	0501                	addi	a0,a0,0
     dec:	002a                	c.slli	zero,0xa
     dee:	0402                	c.slli64	s0
     df0:	0602                	c.slli64	a2
     df2:	02090003          	lb	zero,32(s2)
     df6:	0100                	addi	s0,sp,128
     df8:	2f05                	addiw	t5,t5,1
     dfa:	0200                	addi	s0,sp,256
     dfc:	0204                	addi	s1,sp,256
     dfe:	0306                	slli	t1,t1,0x1
     e00:	0900                	addi	s0,sp,144
     e02:	0000                	unimp
     e04:	0501                	addi	a0,a0,0
     e06:	002c                	addi	a1,sp,8
     e08:	0402                	c.slli64	s0
     e0a:	0302                	c.slli64	t1
     e0c:	0900                	addi	s0,sp,144
     e0e:	0002                	c.slli64	zero
     e10:	0501                	addi	a0,a0,0
     e12:	000e                	c.slli	zero,0x3
     e14:	0402                	c.slli64	s0
     e16:	0601                	addi	a2,a2,0
     e18:	02090003          	lb	zero,32(s2)
     e1c:	0100                	addi	s0,sp,128
     e1e:	2205                	addiw	tp,tp,1
     e20:	0200                	addi	s0,sp,256
     e22:	0104                	addi	s1,sp,128
     e24:	0306                	slli	t1,t1,0x1
     e26:	0900                	addi	s0,sp,144
     e28:	0000                	unimp
     e2a:	0501                	addi	a0,a0,0
     e2c:	000e                	c.slli	zero,0x3
     e2e:	0402                	c.slli64	s0
     e30:	0301                	addi	t1,t1,0
     e32:	0900                	addi	s0,sp,144
     e34:	0004                	0x4
     e36:	0501                	addi	a0,a0,0
     e38:	0025                	c.nop	9
     e3a:	0402                	c.slli64	s0
     e3c:	0602                	c.slli64	a2
     e3e:	06090303          	lb	t1,96(s2)
     e42:	0100                	addi	s0,sp,128
     e44:	2a05                	addiw	s4,s4,1
     e46:	0200                	addi	s0,sp,256
     e48:	0204                	addi	s1,sp,256
     e4a:	0306                	slli	t1,t1,0x1
     e4c:	0900                	addi	s0,sp,144
     e4e:	0000                	unimp
     e50:	0501                	addi	a0,a0,0
     e52:	04020027          	0x4020027
     e56:	0302                	c.slli64	t1
     e58:	0900                	addi	s0,sp,144
     e5a:	0004                	0x4
     e5c:	0501                	addi	a0,a0,0
     e5e:	000e                	c.slli	zero,0x3
     e60:	0402                	c.slli64	s0
     e62:	0601                	addi	a2,a2,0
     e64:	02090003          	lb	zero,32(s2)
     e68:	0100                	addi	s0,sp,128
     e6a:	1d05                	addi	s10,s10,-31
     e6c:	0200                	addi	s0,sp,256
     e6e:	0104                	addi	s1,sp,128
     e70:	0306                	slli	t1,t1,0x1
     e72:	0900                	addi	s0,sp,144
     e74:	0000                	unimp
     e76:	0501                	addi	a0,a0,0
     e78:	000e                	c.slli	zero,0x3
     e7a:	0402                	c.slli64	s0
     e7c:	0301                	addi	t1,t1,0
     e7e:	0900                	addi	s0,sp,144
     e80:	0004                	0x4
     e82:	0501                	addi	a0,a0,0
     e84:	02030603          	lb	a2,32(t1)
     e88:	0409                	addi	s0,s0,2
     e8a:	0100                	addi	s0,sp,128
     e8c:	0105                	addi	sp,sp,1
     e8e:	0306                	slli	t1,t1,0x1
     e90:	0901                	addi	s2,s2,0
     e92:	0000                	unimp
     e94:	0501                	addi	a0,a0,0
     e96:	097c030b          	0x97c030b
     e9a:	0002                	c.slli64	zero
     e9c:	0501                	addi	a0,a0,0
     e9e:	061e                	slli	a2,a2,0x7
     ea0:	04090603          	lb	a2,64(s2)
     ea4:	0100                	addi	s0,sp,128
     ea6:	0305                	addi	t1,t1,1
     ea8:	00090103          	lb	sp,0(s2)
     eac:	0100                	addi	s0,sp,128
     eae:	00090103          	lb	sp,0(s2)
     eb2:	0100                	addi	s0,sp,128
     eb4:	0f05                	addi	t5,t5,1
     eb6:	0306                	slli	t1,t1,0x1
     eb8:	097f                	0x97f
     eba:	0000                	unimp
     ebc:	0501                	addi	a0,a0,0
     ebe:	0309                	addi	t1,t1,2
     ec0:	0901                	addi	s2,s2,0
     ec2:	0002                	c.slli64	zero
     ec4:	0501                	addi	a0,a0,0
     ec6:	000e                	c.slli	zero,0x3
     ec8:	0402                	c.slli64	s0
     eca:	0602                	c.slli64	a2
     ecc:	02090003          	lb	zero,32(s2)
     ed0:	0100                	addi	s0,sp,128
     ed2:	0f05                	addi	t5,t5,1
     ed4:	0200                	addi	s0,sp,256
     ed6:	0204                	addi	s1,sp,256
     ed8:	0306                	slli	t1,t1,0x1
     eda:	0900                	addi	s0,sp,144
     edc:	0000                	unimp
     ede:	0501                	addi	a0,a0,0
     ee0:	000a                	c.slli	zero,0x2
     ee2:	0402                	c.slli64	s0
     ee4:	0601                	addi	a2,a2,0
     ee6:	02090003          	lb	zero,32(s2)
     eea:	0100                	addi	s0,sp,128
     eec:	0305                	addi	t1,t1,1
     eee:	06090103          	lb	sp,96(s2)
     ef2:	0100                	addi	s0,sp,128
     ef4:	0105                	addi	sp,sp,1
     ef6:	0306                	slli	t1,t1,0x1
     ef8:	0901                	addi	s2,s2,0
     efa:	0000                	unimp
     efc:	0501                	addi	a0,a0,0
     efe:	062c                	addi	a1,sp,776
     f00:	06090203          	lb	tp,96(s2)
     f04:	0100                	addi	s0,sp,128
     f06:	0305                	addi	t1,t1,1
     f08:	0200                	addi	s0,sp,256
     f0a:	0204                	addi	s1,sp,256
     f0c:	00090103          	lb	sp,0(s2)
     f10:	0100                	addi	s0,sp,128
     f12:	0200                	addi	s0,sp,256
     f14:	0204                	addi	s1,sp,256
     f16:	00090203          	lb	tp,0(s2)
     f1a:	0100                	addi	s0,sp,128
     f1c:	0505                	addi	a0,a0,1
     f1e:	0200                	addi	s0,sp,256
     f20:	0204                	addi	s1,sp,256
     f22:	00090103          	lb	sp,0(s2)
     f26:	0100                	addi	s0,sp,128
     f28:	0805                	addi	a6,a6,1
     f2a:	0200                	addi	s0,sp,256
     f2c:	0204                	addi	s1,sp,256
     f2e:	0306                	slli	t1,t1,0x1
     f30:	0900                	addi	s0,sp,144
     f32:	0000                	unimp
     f34:	0501                	addi	a0,a0,0
     f36:	0005                	c.nop	1
     f38:	0402                	c.slli64	s0
     f3a:	0602                	c.slli64	a2
     f3c:	06090103          	lb	sp,96(s2)
     f40:	0100                	addi	s0,sp,128
     f42:	0805                	addi	a6,a6,1
     f44:	0200                	addi	s0,sp,256
     f46:	0204                	addi	s1,sp,256
     f48:	0306                	slli	t1,t1,0x1
     f4a:	0900                	addi	s0,sp,144
     f4c:	0000                	unimp
     f4e:	0501                	addi	a0,a0,0
     f50:	0014                	0x14
     f52:	0402                	c.slli64	s0
     f54:	0602                	c.slli64	a2
     f56:	06090103          	lb	sp,96(s2)
     f5a:	0100                	addi	s0,sp,128
     f5c:	0200                	addi	s0,sp,256
     f5e:	0104                	addi	s1,sp,128
     f60:	0306                	slli	t1,t1,0x1
     f62:	0900                	addi	s0,sp,144
     f64:	0002                	c.slli64	zero
     f66:	0501                	addi	a0,a0,0
     f68:	02030603          	lb	a2,32(t1)
     f6c:	0409                	addi	s0,s0,2
     f6e:	0100                	addi	s0,sp,128
     f70:	0105                	addi	sp,sp,1
     f72:	0306                	slli	t1,t1,0x1
     f74:	0901                	addi	s2,s2,0
     f76:	0000                	unimp
     f78:	0501                	addi	a0,a0,0
     f7a:	0203062b          	0x203062b
     f7e:	0609                	addi	a2,a2,2
     f80:	0100                	addi	s0,sp,128
     f82:	0305                	addi	t1,t1,1
     f84:	00090103          	lb	sp,0(s2)
     f88:	0100                	addi	s0,sp,128
     f8a:	00090103          	lb	sp,0(s2)
     f8e:	0100                	addi	s0,sp,128
     f90:	0905                	addi	s2,s2,1
     f92:	0306                	slli	t1,t1,0x1
     f94:	097f                	0x97f
     f96:	0000                	unimp
     f98:	0501                	addi	a0,a0,0
     f9a:	000a                	c.slli	zero,0x2
     f9c:	0402                	c.slli64	s0
     f9e:	0601                	addi	a2,a2,0
     fa0:	02090103          	lb	sp,32(s2)
     fa4:	0100                	addi	s0,sp,128
     fa6:	1205                	addi	tp,tp,-31
     fa8:	0200                	addi	s0,sp,256
     faa:	0104                	addi	s1,sp,128
     fac:	0306                	slli	t1,t1,0x1
     fae:	0900                	addi	s0,sp,144
     fb0:	0000                	unimp
     fb2:	0501                	addi	a0,a0,0
     fb4:	0010                	0x10
     fb6:	0402                	c.slli64	s0
     fb8:	0301                	addi	t1,t1,0
     fba:	0900                	addi	s0,sp,144
     fbc:	0006                	c.slli	zero,0x1
     fbe:	0501                	addi	a0,a0,0
     fc0:	000a                	c.slli	zero,0x2
     fc2:	0402                	c.slli64	s0
     fc4:	0301                	addi	t1,t1,0
     fc6:	0900                	addi	s0,sp,144
     fc8:	0006                	c.slli	zero,0x1
     fca:	0501                	addi	a0,a0,0
     fcc:	02030603          	lb	a2,32(t1)
     fd0:	0209                	addi	tp,tp,2
     fd2:	0100                	addi	s0,sp,128
     fd4:	0105                	addi	sp,sp,1
     fd6:	0306                	slli	t1,t1,0x1
     fd8:	0901                	addi	s2,s2,0
     fda:	0000                	unimp
     fdc:	0601                	addi	a2,a2,0
     fde:	02090303          	lb	t1,32(s2)
     fe2:	0100                	addi	s0,sp,128
     fe4:	0205                	addi	tp,tp,1
     fe6:	00090103          	lb	sp,0(s2)
     fea:	0100                	addi	s0,sp,128
     fec:	00090103          	lb	sp,0(s2)
     ff0:	0100                	addi	s0,sp,128
     ff2:	0405                	addi	s0,s0,1
     ff4:	0306                	slli	t1,t1,0x1
     ff6:	0900                	addi	s0,sp,144
     ff8:	0000                	unimp
     ffa:	0501                	addi	a0,a0,0
     ffc:	060a                	slli	a2,a2,0x2
     ffe:	06090103          	lb	sp,96(s2)
    1002:	0100                	addi	s0,sp,128
    1004:	0205                	addi	tp,tp,1
    1006:	02090003          	lb	zero,32(s2)
    100a:	0100                	addi	s0,sp,128
    100c:	0200                	addi	s0,sp,256
    100e:	0104                	addi	s1,sp,128
    1010:	00090003          	lb	zero,0(s2)
    1014:	0100                	addi	s0,sp,128
    1016:	0305                	addi	t1,t1,1
    1018:	0200                	addi	s0,sp,256
    101a:	0104                	addi	s1,sp,128
    101c:	00090103          	lb	sp,0(s2)
    1020:	0100                	addi	s0,sp,128
    1022:	0705                	addi	a4,a4,1
    1024:	0200                	addi	s0,sp,256
    1026:	0104                	addi	s1,sp,128
    1028:	0306                	slli	t1,t1,0x1
    102a:	0900                	addi	s0,sp,144
    102c:	0000                	unimp
    102e:	0501                	addi	a0,a0,0
    1030:	0006                	c.slli	zero,0x1
    1032:	0402                	c.slli64	s0
    1034:	0301                	addi	t1,t1,0
    1036:	0900                	addi	s0,sp,144
    1038:	0004                	0x4
    103a:	0501                	addi	a0,a0,0
    103c:	02030603          	lb	a2,32(t1)
    1040:	0409                	addi	s0,s0,2
    1042:	0100                	addi	s0,sp,128
    1044:	0605                	addi	a2,a2,1
    1046:	0306                	slli	t1,t1,0x1
    1048:	0900                	addi	s0,sp,144
    104a:	0000                	unimp
    104c:	0501                	addi	a0,a0,0
    104e:	0901030b          	0x901030b
    1052:	0002                	c.slli64	zero
    1054:	0501                	addi	a0,a0,0
    1056:	0301                	addi	t1,t1,0
    1058:	0902                	c.slli64	s2
    105a:	0002                	c.slli64	zero
    105c:	0501                	addi	a0,a0,0
    105e:	062c                	addi	a1,sp,776
    1060:	02090203          	lb	tp,32(s2)
    1064:	0100                	addi	s0,sp,128
    1066:	0305                	addi	t1,t1,1
    1068:	0e090103          	lb	sp,224(s2)
    106c:	0100                	addi	s0,sp,128
    106e:	00090103          	lb	sp,0(s2)
    1072:	0100                	addi	s0,sp,128
    1074:	0605                	addi	a2,a2,1
    1076:	0306                	slli	t1,t1,0x1
    1078:	0900                	addi	s0,sp,144
    107a:	0000                	unimp
    107c:	0501                	addi	a0,a0,0
    107e:	0014                	0x14
    1080:	0402                	c.slli64	s0
    1082:	0601                	addi	a2,a2,0
    1084:	02090003          	lb	zero,32(s2)
    1088:	0100                	addi	s0,sp,128
    108a:	1c05                	addi	s8,s8,-31
    108c:	0200                	addi	s0,sp,256
    108e:	0104                	addi	s1,sp,128
    1090:	0306                	slli	t1,t1,0x1
    1092:	0900                	addi	s0,sp,144
    1094:	0000                	unimp
    1096:	0501                	addi	a0,a0,0
    1098:	01030603          	lb	a2,16(t1)
    109c:	0809                	addi	a6,a6,2
    109e:	0100                	addi	s0,sp,128
    10a0:	0f05                	addi	t5,t5,1
    10a2:	0306                	slli	t1,t1,0x1
    10a4:	0900                	addi	s0,sp,144
    10a6:	0000                	unimp
    10a8:	0501                	addi	a0,a0,0
    10aa:	0306                	slli	t1,t1,0x1
    10ac:	0900                	addi	s0,sp,144
    10ae:	0008                	0x8
    10b0:	0501                	addi	a0,a0,0
    10b2:	0402003b          	0x402003b
    10b6:	03030603          	lb	a2,48(t1)
    10ba:	0409                	addi	s0,s0,2
    10bc:	0100                	addi	s0,sp,128
    10be:	4005                	c.li	zero,1
    10c0:	0200                	addi	s0,sp,256
    10c2:	0304                	addi	s1,sp,384
    10c4:	0306                	slli	t1,t1,0x1
    10c6:	0900                	addi	s0,sp,144
    10c8:	0000                	unimp
    10ca:	0501                	addi	a0,a0,0
    10cc:	0019                	c.nop	6
    10ce:	0402                	c.slli64	s0
    10d0:	0601                	addi	a2,a2,0
    10d2:	02090003          	lb	zero,32(s2)
    10d6:	0100                	addi	s0,sp,128
    10d8:	0a05                	addi	s4,s4,1
    10da:	0200                	addi	s0,sp,256
    10dc:	0104                	addi	s1,sp,128
    10de:	0306                	slli	t1,t1,0x1
    10e0:	0900                	addi	s0,sp,144
    10e2:	0000                	unimp
    10e4:	0501                	addi	a0,a0,0
    10e6:	0019                	c.nop	6
    10e8:	0402                	c.slli64	s0
    10ea:	0301                	addi	t1,t1,0
    10ec:	0900                	addi	s0,sp,144
    10ee:	0004                	0x4
    10f0:	0501                	addi	a0,a0,0
    10f2:	001c                	0x1c
    10f4:	0402                	c.slli64	s0
    10f6:	0302                	c.slli64	t1
    10f8:	0900                	addi	s0,sp,144
    10fa:	0002                	c.slli64	zero
    10fc:	0501                	addi	a0,a0,0
    10fe:	0019                	c.nop	6
    1100:	0402                	c.slli64	s0
    1102:	0302                	c.slli64	t1
    1104:	0900                	addi	s0,sp,144
    1106:	0008                	0x8
    1108:	0501                	addi	a0,a0,0
    110a:	02030603          	lb	a2,32(t1)
    110e:	0209                	addi	tp,tp,2
    1110:	0100                	addi	s0,sp,128
    1112:	0605                	addi	a2,a2,1
    1114:	0306                	slli	t1,t1,0x1
    1116:	0900                	addi	s0,sp,144
    1118:	0000                	unimp
    111a:	0501                	addi	a0,a0,0
    111c:	0309                	addi	t1,t1,2
    111e:	0905                	addi	s2,s2,1
    1120:	0002                	c.slli64	zero
    1122:	0501                	addi	a0,a0,0
    1124:	04020017          	auipc	zero,0x4020
    1128:	0601                	addi	a2,a2,0
    112a:	02090103          	lb	sp,32(s2)
    112e:	0100                	addi	s0,sp,128
    1130:	0a05                	addi	s4,s4,1
    1132:	0200                	addi	s0,sp,256
    1134:	0104                	addi	s1,sp,128
    1136:	0306                	slli	t1,t1,0x1
    1138:	0900                	addi	s0,sp,144
    113a:	0000                	unimp
    113c:	0501                	addi	a0,a0,0
    113e:	04020017          	auipc	zero,0x4020
    1142:	0301                	addi	t1,t1,0
    1144:	0900                	addi	s0,sp,144
    1146:	0004                	0x4
    1148:	0501                	addi	a0,a0,0
    114a:	001a                	c.slli	zero,0x6
    114c:	0402                	c.slli64	s0
    114e:	0302                	c.slli64	t1
    1150:	0900                	addi	s0,sp,144
    1152:	0004                	0x4
    1154:	0501                	addi	a0,a0,0
    1156:	04020017          	auipc	zero,0x4020
    115a:	0302                	c.slli64	t1
    115c:	0900                	addi	s0,sp,144
    115e:	0008                	0x8
    1160:	0501                	addi	a0,a0,0
    1162:	04020037          	lui	zero,0x4020
    1166:	00030603          	lb	a2,0(t1)
    116a:	0209                	addi	tp,tp,2
    116c:	0100                	addi	s0,sp,128
    116e:	3a05                	addiw	s4,s4,-31
    1170:	0200                	addi	s0,sp,256
    1172:	0304                	addi	s1,sp,384
    1174:	0306                	slli	t1,t1,0x1
    1176:	0900                	addi	s0,sp,144
    1178:	0000                	unimp
    117a:	0501                	addi	a0,a0,0
    117c:	0605                	addi	a2,a2,1
    117e:	04097b03          	0x4097b03
    1182:	0100                	addi	s0,sp,128
    1184:	0d05                	addi	s10,s10,1
    1186:	0306                	slli	t1,t1,0x1
    1188:	0900                	addi	s0,sp,144
    118a:	0000                	unimp
    118c:	0501                	addi	a0,a0,0
    118e:	0605                	addi	a2,a2,1
    1190:	08090103          	lb	sp,128(s2)
    1194:	0100                	addi	s0,sp,128
    1196:	0c05                	addi	s8,s8,1
    1198:	0306                	slli	t1,t1,0x1
    119a:	0900                	addi	s0,sp,144
    119c:	0000                	unimp
    119e:	0501                	addi	a0,a0,0
    11a0:	06030603          	lb	a2,96(t1)
    11a4:	0409                	addi	s0,s0,2
    11a6:	0100                	addi	s0,sp,128
    11a8:	0605                	addi	a2,a2,1
    11aa:	0306                	slli	t1,t1,0x1
    11ac:	0900                	addi	s0,sp,144
    11ae:	0000                	unimp
    11b0:	0501                	addi	a0,a0,0
    11b2:	0605                	addi	a2,a2,1
    11b4:	04090103          	lb	sp,64(s2)
    11b8:	0100                	addi	s0,sp,128
    11ba:	0a05                	addi	s4,s4,1
    11bc:	0306                	slli	t1,t1,0x1
    11be:	0900                	addi	s0,sp,144
    11c0:	0000                	unimp
    11c2:	0501                	addi	a0,a0,0
    11c4:	0605                	addi	a2,a2,1
    11c6:	04090103          	lb	sp,64(s2)
    11ca:	0100                	addi	s0,sp,128
    11cc:	1305                	addi	t1,t1,-31
    11ce:	0306                	slli	t1,t1,0x1
    11d0:	0900                	addi	s0,sp,144
    11d2:	0000                	unimp
    11d4:	0501                	addi	a0,a0,0
    11d6:	030d                	addi	t1,t1,3
    11d8:	0900                	addi	s0,sp,144
    11da:	0002                	c.slli64	zero
    11dc:	0501                	addi	a0,a0,0
    11de:	0301                	addi	t1,t1,0
    11e0:	0904                	addi	s1,sp,144
    11e2:	0008                	0x8
    11e4:	0501                	addi	a0,a0,0
    11e6:	0605                	addi	a2,a2,1
    11e8:	10097e03          	0x10097e03
    11ec:	0100                	addi	s0,sp,128
    11ee:	0d05                	addi	s10,s10,1
    11f0:	0306                	slli	t1,t1,0x1
    11f2:	0900                	addi	s0,sp,144
    11f4:	0000                	unimp
    11f6:	0501                	addi	a0,a0,0
    11f8:	062a                	slli	a2,a2,0xa
    11fa:	0a090403          	lb	s0,160(s2)
    11fe:	0100                	addi	s0,sp,128
    1200:	0305                	addi	t1,t1,1
    1202:	0c090103          	lb	sp,192(s2)
    1206:	0100                	addi	s0,sp,128
    1208:	1005                	c.nop	-31
    120a:	0306                	slli	t1,t1,0x1
    120c:	0900                	addi	s0,sp,144
    120e:	0000                	unimp
    1210:	0501                	addi	a0,a0,0
    1212:	09000303          	lb	t1,144(zero) # 90 <main-0x10020>
    1216:	0004                	0x4
    1218:	0601                	addi	a2,a2,0
    121a:	08090103          	lb	sp,128(s2)
    121e:	0100                	addi	s0,sp,128
    1220:	0105                	addi	sp,sp,1
    1222:	0306                	slli	t1,t1,0x1
    1224:	0901                	addi	s2,s2,0
    1226:	0000                	unimp
    1228:	0501                	addi	a0,a0,0
    122a:	061c                	addi	a5,sp,768
    122c:	0c090203          	lb	tp,192(s2)
    1230:	0100                	addi	s0,sp,128
    1232:	0305                	addi	t1,t1,1
    1234:	02090103          	lb	sp,32(s2)
    1238:	0100                	addi	s0,sp,128
    123a:	00090103          	lb	sp,0(s2)
    123e:	0100                	addi	s0,sp,128
    1240:	00090203          	lb	tp,0(s2)
    1244:	0100                	addi	s0,sp,128
    1246:	0905                	addi	s2,s2,1
    1248:	0306                	slli	t1,t1,0x1
    124a:	0900                	addi	s0,sp,144
    124c:	0000                	unimp
    124e:	0501                	addi	a0,a0,0
    1250:	04020017          	auipc	zero,0x4020
    1254:	0602                	c.slli64	a2
    1256:	02090003          	lb	zero,32(s2)
    125a:	0100                	addi	s0,sp,128
    125c:	1a05                	addi	s4,s4,-31
    125e:	0200                	addi	s0,sp,256
    1260:	0204                	addi	s1,sp,256
    1262:	0306                	slli	t1,t1,0x1
    1264:	0900                	addi	s0,sp,144
    1266:	0000                	unimp
    1268:	0501                	addi	a0,a0,0
    126a:	0402000f          	0x402000f
    126e:	0601                	addi	a2,a2,0
    1270:	02090003          	lb	zero,32(s2)
    1274:	0100                	addi	s0,sp,128
    1276:	0a05                	addi	s4,s4,1
    1278:	0200                	addi	s0,sp,256
    127a:	0104                	addi	s1,sp,128
    127c:	0306                	slli	t1,t1,0x1
    127e:	0900                	addi	s0,sp,144
    1280:	0000                	unimp
    1282:	0501                	addi	a0,a0,0
    1284:	0402000f          	0x402000f
    1288:	0301                	addi	t1,t1,0
    128a:	0900                	addi	s0,sp,144
    128c:	0004                	0x4
    128e:	0501                	addi	a0,a0,0
    1290:	02030603          	lb	a2,32(t1)
    1294:	0809                	addi	a6,a6,2
    1296:	0100                	addi	s0,sp,128
    1298:	0605                	addi	a2,a2,1
    129a:	0306                	slli	t1,t1,0x1
    129c:	0900                	addi	s0,sp,144
    129e:	0000                	unimp
    12a0:	0501                	addi	a0,a0,0
    12a2:	04020013          	addi	zero,tp,64 # 40 <main-0x10070>
    12a6:	0301                	addi	t1,t1,0
    12a8:	0900                	addi	s0,sp,144
    12aa:	0008                	0x8
    12ac:	0501                	addi	a0,a0,0
    12ae:	097c0307          	0x97c0307
    12b2:	0008                	0x8
    12b4:	0501                	addi	a0,a0,0
    12b6:	0605                	addi	a2,a2,1
    12b8:	04090503          	lb	a0,64(s2)
    12bc:	0100                	addi	s0,sp,128
    12be:	1105                	addi	sp,sp,-31
    12c0:	0306                	slli	t1,t1,0x1
    12c2:	0900                	addi	s0,sp,144
    12c4:	0000                	unimp
    12c6:	0501                	addi	a0,a0,0
    12c8:	030a                	slli	t1,t1,0x2
    12ca:	0900                	addi	s0,sp,144
    12cc:	0004                	0x4
    12ce:	0501                	addi	a0,a0,0
    12d0:	0605                	addi	a2,a2,1
    12d2:	04090103          	lb	sp,64(s2)
    12d6:	0100                	addi	s0,sp,128
    12d8:	0805                	addi	a6,a6,1
    12da:	0306                	slli	t1,t1,0x1
    12dc:	0900                	addi	s0,sp,144
    12de:	0000                	unimp
    12e0:	0501                	addi	a0,a0,0
    12e2:	097a0307          	0x97a0307
    12e6:	0002                	c.slli64	zero
    12e8:	0501                	addi	a0,a0,0
    12ea:	0605                	addi	a2,a2,1
    12ec:	04090a03          	lb	s4,64(s2)
    12f0:	0100                	addi	s0,sp,128
    12f2:	0905                	addi	s2,s2,1
    12f4:	0306                	slli	t1,t1,0x1
    12f6:	0900                	addi	s0,sp,144
    12f8:	0000                	unimp
    12fa:	0501                	addi	a0,a0,0
    12fc:	0605                	addi	a2,a2,1
    12fe:	08090103          	lb	sp,128(s2)
    1302:	0100                	addi	s0,sp,128
    1304:	1005                	c.nop	-31
    1306:	0306                	slli	t1,t1,0x1
    1308:	0900                	addi	s0,sp,144
    130a:	0000                	unimp
    130c:	0501                	addi	a0,a0,0
    130e:	09000313          	li	t1,144
    1312:	0002                	c.slli64	zero
    1314:	0501                	addi	a0,a0,0
    1316:	0309                	addi	t1,t1,2
    1318:	0900                	addi	s0,sp,144
    131a:	0004                	0x4
    131c:	0501                	addi	a0,a0,0
    131e:	060a                	slli	a2,a2,0x2
    1320:	04097e03          	0x4097e03
    1324:	0100                	addi	s0,sp,128
    1326:	0305                	addi	t1,t1,1
    1328:	06090503          	lb	a0,96(s2)
    132c:	0100                	addi	s0,sp,128
    132e:	1605                	addi	a2,a2,-31
    1330:	0306                	slli	t1,t1,0x1
    1332:	0900                	addi	s0,sp,144
    1334:	0000                	unimp
    1336:	0001                	nop
    1338:	0402                	c.slli64	s0
    133a:	0301                	addi	t1,t1,0
    133c:	0900                	addi	s0,sp,144
    133e:	0002                	c.slli64	zero
    1340:	0501                	addi	a0,a0,0
    1342:	0301                	addi	t1,t1,0
    1344:	0901                	addi	s2,s2,0
    1346:	0004                	0x4
    1348:	0501                	addi	a0,a0,0
    134a:	0635                	addi	a2,a2,13
    134c:	02090203          	lb	tp,32(s2)
    1350:	0100                	addi	s0,sp,128
    1352:	0305                	addi	t1,t1,1
    1354:	00090103          	lb	sp,0(s2)
    1358:	0100                	addi	s0,sp,128
    135a:	00090103          	lb	sp,0(s2)
    135e:	0100                	addi	s0,sp,128
    1360:	00090203          	lb	tp,0(s2)
    1364:	0100                	addi	s0,sp,128
    1366:	00090103          	lb	sp,0(s2)
    136a:	0100                	addi	s0,sp,128
    136c:	00090103          	lb	sp,0(s2)
    1370:	0100                	addi	s0,sp,128
    1372:	0605                	addi	a2,a2,1
    1374:	0306                	slli	t1,t1,0x1
    1376:	0900                	addi	s0,sp,144
    1378:	0000                	unimp
    137a:	0501                	addi	a0,a0,0
    137c:	0012                	c.slli	zero,0x4
    137e:	0402                	c.slli64	s0
    1380:	0301                	addi	t1,t1,0
    1382:	0900                	addi	s0,sp,144
    1384:	0004                	0x4
    1386:	0501                	addi	a0,a0,0
    1388:	000d                	c.nop	3
    138a:	0402                	c.slli64	s0
    138c:	0301                	addi	t1,t1,0
    138e:	0900                	addi	s0,sp,144
    1390:	0004                	0x4
    1392:	0501                	addi	a0,a0,0
    1394:	0605                	addi	a2,a2,1
    1396:	04090103          	lb	sp,64(s2)
    139a:	0100                	addi	s0,sp,128
    139c:	00090103          	lb	sp,0(s2)
    13a0:	0100                	addi	s0,sp,128
    13a2:	0705                	addi	a4,a4,1
    13a4:	0306                	slli	t1,t1,0x1
    13a6:	0900                	addi	s0,sp,144
    13a8:	0000                	unimp
    13aa:	0501                	addi	a0,a0,0
    13ac:	0605                	addi	a2,a2,1
    13ae:	04090103          	lb	sp,64(s2)
    13b2:	0100                	addi	s0,sp,128
    13b4:	0b05                	addi	s6,s6,1
    13b6:	0306                	slli	t1,t1,0x1
    13b8:	0900                	addi	s0,sp,144
    13ba:	0000                	unimp
    13bc:	0501                	addi	a0,a0,0
    13be:	0015                	c.nop	5
    13c0:	0402                	c.slli64	s0
    13c2:	0602                	c.slli64	a2
    13c4:	02090003          	lb	zero,32(s2)
    13c8:	0100                	addi	s0,sp,128
    13ca:	1a05                	addi	s4,s4,-31
    13cc:	0200                	addi	s0,sp,256
    13ce:	0204                	addi	s1,sp,256
    13d0:	0306                	slli	t1,t1,0x1
    13d2:	0900                	addi	s0,sp,144
    13d4:	0000                	unimp
    13d6:	0501                	addi	a0,a0,0
    13d8:	001c                	0x1c
    13da:	0402                	c.slli64	s0
    13dc:	0302                	c.slli64	t1
    13de:	0900                	addi	s0,sp,144
    13e0:	0004                	0x4
    13e2:	0501                	addi	a0,a0,0
    13e4:	001a                	c.slli	zero,0x6
    13e6:	0402                	c.slli64	s0
    13e8:	0302                	c.slli64	t1
    13ea:	0900                	addi	s0,sp,144
    13ec:	0004                	0x4
    13ee:	0501                	addi	a0,a0,0
    13f0:	000d                	c.nop	3
    13f2:	0402                	c.slli64	s0
    13f4:	0302                	c.slli64	t1
    13f6:	0900                	addi	s0,sp,144
    13f8:	0004                	0x4
    13fa:	0501                	addi	a0,a0,0
    13fc:	0010                	0x10
    13fe:	0402                	c.slli64	s0
    1400:	0601                	addi	a2,a2,0
    1402:	02090003          	lb	zero,32(s2)
    1406:	0100                	addi	s0,sp,128
    1408:	0d05                	addi	s10,s10,1
    140a:	0200                	addi	s0,sp,256
    140c:	0104                	addi	s1,sp,128
    140e:	0306                	slli	t1,t1,0x1
    1410:	0900                	addi	s0,sp,144
    1412:	0000                	unimp
    1414:	0501                	addi	a0,a0,0
    1416:	0010                	0x10
    1418:	0402                	c.slli64	s0
    141a:	0301                	addi	t1,t1,0
    141c:	0900                	addi	s0,sp,144
    141e:	0004                	0x4
    1420:	0501                	addi	a0,a0,0
    1422:	0015                	c.nop	5
    1424:	0402                	c.slli64	s0
    1426:	0602                	c.slli64	a2
    1428:	04090203          	lb	tp,64(s2)
    142c:	0100                	addi	s0,sp,128
    142e:	1c05                	addi	s8,s8,-31
    1430:	0200                	addi	s0,sp,256
    1432:	0204                	addi	s1,sp,256
    1434:	0306                	slli	t1,t1,0x1
    1436:	0900                	addi	s0,sp,144
    1438:	0000                	unimp
    143a:	0501                	addi	a0,a0,0
    143c:	001a                	c.slli	zero,0x6
    143e:	0402                	c.slli64	s0
    1440:	0302                	c.slli64	t1
    1442:	0900                	addi	s0,sp,144
    1444:	0004                	0x4
    1446:	0501                	addi	a0,a0,0
    1448:	04020017          	auipc	zero,0x4020
    144c:	0302                	c.slli64	t1
    144e:	0900                	addi	s0,sp,144
    1450:	0004                	0x4
    1452:	0501                	addi	a0,a0,0
    1454:	001e                	c.slli	zero,0x7
    1456:	0402                	c.slli64	s0
    1458:	0302                	c.slli64	t1
    145a:	0900                	addi	s0,sp,144
    145c:	0002                	c.slli64	zero
    145e:	0501                	addi	a0,a0,0
    1460:	000d                	c.nop	3
    1462:	0402                	c.slli64	s0
    1464:	0302                	c.slli64	t1
    1466:	0900                	addi	s0,sp,144
    1468:	0002                	c.slli64	zero
    146a:	0501                	addi	a0,a0,0
    146c:	0010                	0x10
    146e:	0402                	c.slli64	s0
    1470:	0601                	addi	a2,a2,0
    1472:	02090003          	lb	zero,32(s2)
    1476:	0100                	addi	s0,sp,128
    1478:	0d05                	addi	s10,s10,1
    147a:	0200                	addi	s0,sp,256
    147c:	0104                	addi	s1,sp,128
    147e:	0306                	slli	t1,t1,0x1
    1480:	0900                	addi	s0,sp,144
    1482:	0000                	unimp
    1484:	0501                	addi	a0,a0,0
    1486:	0010                	0x10
    1488:	0402                	c.slli64	s0
    148a:	0301                	addi	t1,t1,0
    148c:	0900                	addi	s0,sp,144
    148e:	0004                	0x4
    1490:	0501                	addi	a0,a0,0
    1492:	02030603          	lb	a2,32(t1)
    1496:	0209                	addi	tp,tp,2
    1498:	0100                	addi	s0,sp,128
    149a:	0105                	addi	sp,sp,1
    149c:	0306                	slli	t1,t1,0x1
    149e:	0901                	addi	s2,s2,0
    14a0:	0000                	unimp
    14a2:	0501                	addi	a0,a0,0
    14a4:	0631                	addi	a2,a2,12
    14a6:	0a090303          	lb	t1,160(s2)
    14aa:	0100                	addi	s0,sp,128
    14ac:	0305                	addi	t1,t1,1
    14ae:	00090103          	lb	sp,0(s2)
    14b2:	0100                	addi	s0,sp,128
    14b4:	00090203          	lb	tp,0(s2)
    14b8:	0100                	addi	s0,sp,128
    14ba:	00090103          	lb	sp,0(s2)
    14be:	0100                	addi	s0,sp,128
    14c0:	0605                	addi	a2,a2,1
    14c2:	0306                	slli	t1,t1,0x1
    14c4:	0900                	addi	s0,sp,144
    14c6:	0000                	unimp
    14c8:	0501                	addi	a0,a0,0
    14ca:	031f 0901 0008      	0x80901031f
    14d0:	0501                	addi	a0,a0,0
    14d2:	0318                	addi	a4,sp,384
    14d4:	0900                	addi	s0,sp,144
    14d6:	0002                	c.slli64	zero
    14d8:	0501                	addi	a0,a0,0
    14da:	0012                	c.slli	zero,0x4
    14dc:	0402                	c.slli64	s0
    14de:	0602                	c.slli64	a2
    14e0:	02090003          	lb	zero,32(s2)
    14e4:	0100                	addi	s0,sp,128
    14e6:	1f05                	addi	t5,t5,-31
    14e8:	0200                	addi	s0,sp,256
    14ea:	0104                	addi	s1,sp,128
    14ec:	0306                	slli	t1,t1,0x1
    14ee:	0900                	addi	s0,sp,144
    14f0:	0006                	c.slli	zero,0x1
    14f2:	0501                	addi	a0,a0,0
    14f4:	0018                	0x18
    14f6:	0402                	c.slli64	s0
    14f8:	0301                	addi	t1,t1,0
    14fa:	0900                	addi	s0,sp,144
    14fc:	0004                	0x4
    14fe:	0501                	addi	a0,a0,0
    1500:	001d                	c.nop	7
    1502:	0402                	c.slli64	s0
    1504:	0301                	addi	t1,t1,0
    1506:	0900                	addi	s0,sp,144
    1508:	0004                	0x4
    150a:	0501                	addi	a0,a0,0
    150c:	0402001b          	addiw	zero,tp,64
    1510:	0301                	addi	t1,t1,0
    1512:	0900                	addi	s0,sp,144
    1514:	0004                	0x4
    1516:	0501                	addi	a0,a0,0
    1518:	0012                	c.slli	zero,0x4
    151a:	0402                	c.slli64	s0
    151c:	0301                	addi	t1,t1,0
    151e:	0900                	addi	s0,sp,144
    1520:	0004                	0x4
    1522:	0501                	addi	a0,a0,0
    1524:	0318                	addi	a4,sp,384
    1526:	0900                	addi	s0,sp,144
    1528:	0002                	c.slli64	zero
    152a:	0501                	addi	a0,a0,0
    152c:	02030603          	lb	a2,32(t1)
    1530:	0209                	addi	tp,tp,2
    1532:	0100                	addi	s0,sp,128
    1534:	0605                	addi	a2,a2,1
    1536:	0306                	slli	t1,t1,0x1
    1538:	0900                	addi	s0,sp,144
    153a:	0000                	unimp
    153c:	0501                	addi	a0,a0,0
    153e:	01030603          	lb	a2,16(t1)
    1542:	0409                	addi	s0,s0,2
    1544:	0100                	addi	s0,sp,128
    1546:	0105                	addi	sp,sp,1
    1548:	0306                	slli	t1,t1,0x1
    154a:	0901                	addi	s2,s2,0
    154c:	0000                	unimp
    154e:	0901                	addi	s2,s2,0
    1550:	0002                	c.slli64	zero
    1552:	0100                	addi	s0,sp,128
    1554:	01              	地址 0x0000000000001554 越界。


Disassembly of section .debug_frame:

0000000000000000 <.debug_frame>:
   0:	000c                	0xc
   2:	0000                	unimp
   4:	ffff                	0xffff
   6:	ffff                	0xffff
   8:	7c010003          	lb	zero,1984(sp)
   c:	0d01                	addi	s10,s10,0
   e:	0002                	c.slli64	zero
  10:	0044                	addi	s1,sp,4
  12:	0000                	unimp
  14:	0000                	unimp
  16:	0000                	unimp
  18:	00b0                	addi	a2,sp,72
  1a:	0001                	nop
  1c:	0000                	unimp
  1e:	0000                	unimp
  20:	0122                	slli	sp,sp,0x8
  22:	0000                	unimp
  24:	0000                	unimp
  26:	0000                	unimp
  28:	0e42                	slli	t3,t3,0x10
  2a:	4c40                	lw	s0,28(s0)
  2c:	0281                	addi	t0,t0,0
  2e:	0488                	addi	a0,sp,576
  30:	0689                	addi	a3,a3,2
  32:	0892                	slli	a7,a7,0x4
  34:	0c940a93          	addi	s5,s0,201
  38:	0c42                	slli	s8,s8,0x10
  3a:	0008                	0x8
  3c:	0c010203          	lb	tp,192(sp)
  40:	4002                	0x4002
  42:	c142                	sw	a6,128(sp)
  44:	c842                	sw	a6,16(sp)
  46:	c942                	sw	a6,144(sp)
  48:	d242                	sw	a6,36(sp)
  4a:	d342                	sw	a6,164(sp)
  4c:	d442                	sw	a6,40(sp)
  4e:	0e42                	slli	t3,t3,0x10
	...
  58:	000c                	0xc
  5a:	0000                	unimp
  5c:	ffff                	0xffff
  5e:	ffff                	0xffff
  60:	7c010003          	lb	zero,1984(sp)
  64:	0d01                	addi	s10,s10,0
  66:	0002                	c.slli64	zero
  68:	001c                	0x1c
  6a:	0000                	unimp
  6c:	0058                	addi	a4,sp,4
  6e:	0000                	unimp
  70:	01d2                	slli	gp,gp,0x14
  72:	0001                	nop
  74:	0000                	unimp
  76:	0000                	unimp
  78:	000e                	c.slli	zero,0x3
  7a:	0000                	unimp
  7c:	0000                	unimp
  7e:	0000                	unimp
  80:	0e42                	slli	t3,t3,0x10
  82:	4a10                	lw	a2,16(a2)
  84:	000e                	c.slli	zero,0x3
  86:	0000                	unimp
  88:	0024                	addi	s1,sp,8
  8a:	0000                	unimp
  8c:	0058                	addi	a4,sp,4
  8e:	0000                	unimp
  90:	01e0                	addi	s0,sp,204
  92:	0001                	nop
  94:	0000                	unimp
  96:	0000                	unimp
  98:	0052                	c.slli	zero,0x14
  9a:	0000                	unimp
  9c:	0000                	unimp
  9e:	0000                	unimp
  a0:	0e42                	slli	t3,t3,0x10
  a2:	02e0                	addi	s0,sp,332
  a4:	8142                	mv	sp,a6
  a6:	0212                	slli	tp,tp,0x4
  a8:	0a44                	addi	s1,sp,276
  aa:	42c1                	li	t0,16
  ac:	000e                	c.slli	zero,0x3
  ae:	0b42                	slli	s6,s6,0x10
  b0:	0024                	addi	s1,sp,8
  b2:	0000                	unimp
  b4:	0058                	addi	a4,sp,4
  b6:	0000                	unimp
  b8:	0232                	slli	tp,tp,0xc
  ba:	0001                	nop
  bc:	0000                	unimp
  be:	0000                	unimp
  c0:	0022                	c.slli	zero,0x8
  c2:	0000                	unimp
  c4:	0000                	unimp
  c6:	0000                	unimp
  c8:	0e42                	slli	t3,t3,0x10
  ca:	4210                	lw	a2,0(a2)
  cc:	0281                	addi	t0,t0,0
  ce:	c15a                	sw	s6,128(sp)
  d0:	0e42                	slli	t3,t3,0x10
  d2:	0000                	unimp
  d4:	0000                	unimp
  d6:	0000                	unimp
  d8:	0024                	addi	s1,sp,8
  da:	0000                	unimp
  dc:	0058                	addi	a4,sp,4
  de:	0000                	unimp
  e0:	0254                	addi	a3,sp,260
  e2:	0001                	nop
  e4:	0000                	unimp
  e6:	0000                	unimp
  e8:	0020                	addi	s0,sp,8
  ea:	0000                	unimp
  ec:	0000                	unimp
  ee:	0000                	unimp
  f0:	0e42                	slli	t3,t3,0x10
  f2:	4210                	lw	a2,0(a2)
  f4:	0281                	addi	t0,t0,0
  f6:	c158                	sw	a4,4(a0)
  f8:	0e42                	slli	t3,t3,0x10
  fa:	0000                	unimp
  fc:	0000                	unimp
  fe:	0000                	unimp
 100:	0024                	addi	s1,sp,8
 102:	0000                	unimp
 104:	0058                	addi	a4,sp,4
 106:	0000                	unimp
 108:	0274                	addi	a3,sp,268
 10a:	0001                	nop
 10c:	0000                	unimp
 10e:	0000                	unimp
 110:	0020                	addi	s0,sp,8
 112:	0000                	unimp
 114:	0000                	unimp
 116:	0000                	unimp
 118:	0e42                	slli	t3,t3,0x10
 11a:	4210                	lw	a2,0(a2)
 11c:	0281                	addi	t0,t0,0
 11e:	c158                	sw	a4,4(a0)
 120:	0e42                	slli	t3,t3,0x10
 122:	0000                	unimp
 124:	0000                	unimp
 126:	0000                	unimp
 128:	0024                	addi	s1,sp,8
 12a:	0000                	unimp
 12c:	0058                	addi	a4,sp,4
 12e:	0000                	unimp
 130:	0294                	addi	a3,sp,320
 132:	0001                	nop
 134:	0000                	unimp
 136:	0000                	unimp
 138:	0022                	c.slli	zero,0x8
 13a:	0000                	unimp
 13c:	0000                	unimp
 13e:	0000                	unimp
 140:	0e42                	slli	t3,t3,0x10
 142:	4210                	lw	a2,0(a2)
 144:	0281                	addi	t0,t0,0
 146:	c15a                	sw	s6,128(sp)
 148:	0e42                	slli	t3,t3,0x10
 14a:	0000                	unimp
 14c:	0000                	unimp
 14e:	0000                	unimp
 150:	0024                	addi	s1,sp,8
 152:	0000                	unimp
 154:	0058                	addi	a4,sp,4
 156:	0000                	unimp
 158:	02b6                	slli	t0,t0,0xd
 15a:	0001                	nop
 15c:	0000                	unimp
 15e:	0000                	unimp
 160:	0020                	addi	s0,sp,8
 162:	0000                	unimp
 164:	0000                	unimp
 166:	0000                	unimp
 168:	0e42                	slli	t3,t3,0x10
 16a:	4210                	lw	a2,0(a2)
 16c:	0281                	addi	t0,t0,0
 16e:	c158                	sw	a4,4(a0)
 170:	0e42                	slli	t3,t3,0x10
 172:	0000                	unimp
 174:	0000                	unimp
 176:	0000                	unimp
 178:	0024                	addi	s1,sp,8
 17a:	0000                	unimp
 17c:	0058                	addi	a4,sp,4
 17e:	0000                	unimp
 180:	02d6                	slli	t0,t0,0x15
 182:	0001                	nop
 184:	0000                	unimp
 186:	0000                	unimp
 188:	0022                	c.slli	zero,0x8
 18a:	0000                	unimp
 18c:	0000                	unimp
 18e:	0000                	unimp
 190:	0e42                	slli	t3,t3,0x10
 192:	4210                	lw	a2,0(a2)
 194:	0281                	addi	t0,t0,0
 196:	c15a                	sw	s6,128(sp)
 198:	0e42                	slli	t3,t3,0x10
 19a:	0000                	unimp
 19c:	0000                	unimp
 19e:	0000                	unimp
 1a0:	0024                	addi	s1,sp,8
 1a2:	0000                	unimp
 1a4:	0058                	addi	a4,sp,4
 1a6:	0000                	unimp
 1a8:	02f8                	addi	a4,sp,332
 1aa:	0001                	nop
 1ac:	0000                	unimp
 1ae:	0000                	unimp
 1b0:	0022                	c.slli	zero,0x8
 1b2:	0000                	unimp
 1b4:	0000                	unimp
 1b6:	0000                	unimp
 1b8:	0e42                	slli	t3,t3,0x10
 1ba:	4210                	lw	a2,0(a2)
 1bc:	0281                	addi	t0,t0,0
 1be:	c15a                	sw	s6,128(sp)
 1c0:	0e42                	slli	t3,t3,0x10
 1c2:	0000                	unimp
 1c4:	0000                	unimp
 1c6:	0000                	unimp
 1c8:	0024                	addi	s1,sp,8
 1ca:	0000                	unimp
 1cc:	0058                	addi	a4,sp,4
 1ce:	0000                	unimp
 1d0:	031a                	slli	t1,t1,0x6
 1d2:	0001                	nop
 1d4:	0000                	unimp
 1d6:	0000                	unimp
 1d8:	0022                	c.slli	zero,0x8
 1da:	0000                	unimp
 1dc:	0000                	unimp
 1de:	0000                	unimp
 1e0:	0e42                	slli	t3,t3,0x10
 1e2:	4210                	lw	a2,0(a2)
 1e4:	0281                	addi	t0,t0,0
 1e6:	c15a                	sw	s6,128(sp)
 1e8:	0e42                	slli	t3,t3,0x10
 1ea:	0000                	unimp
 1ec:	0000                	unimp
 1ee:	0000                	unimp
 1f0:	0024                	addi	s1,sp,8
 1f2:	0000                	unimp
 1f4:	0058                	addi	a4,sp,4
 1f6:	0000                	unimp
 1f8:	033c                	addi	a5,sp,392
 1fa:	0001                	nop
 1fc:	0000                	unimp
 1fe:	0000                	unimp
 200:	0022                	c.slli	zero,0x8
 202:	0000                	unimp
 204:	0000                	unimp
 206:	0000                	unimp
 208:	0e42                	slli	t3,t3,0x10
 20a:	4210                	lw	a2,0(a2)
 20c:	0281                	addi	t0,t0,0
 20e:	c15a                	sw	s6,128(sp)
 210:	0e42                	slli	t3,t3,0x10
 212:	0000                	unimp
 214:	0000                	unimp
 216:	0000                	unimp
 218:	0024                	addi	s1,sp,8
 21a:	0000                	unimp
 21c:	0058                	addi	a4,sp,4
 21e:	0000                	unimp
 220:	035e                	slli	t1,t1,0x17
 222:	0001                	nop
 224:	0000                	unimp
 226:	0000                	unimp
 228:	0022                	c.slli	zero,0x8
 22a:	0000                	unimp
 22c:	0000                	unimp
 22e:	0000                	unimp
 230:	0e42                	slli	t3,t3,0x10
 232:	4210                	lw	a2,0(a2)
 234:	0281                	addi	t0,t0,0
 236:	c15a                	sw	s6,128(sp)
 238:	0e42                	slli	t3,t3,0x10
 23a:	0000                	unimp
 23c:	0000                	unimp
 23e:	0000                	unimp
 240:	0024                	addi	s1,sp,8
 242:	0000                	unimp
 244:	0058                	addi	a4,sp,4
 246:	0000                	unimp
 248:	0380                	addi	s0,sp,448
 24a:	0001                	nop
 24c:	0000                	unimp
 24e:	0000                	unimp
 250:	0022                	c.slli	zero,0x8
 252:	0000                	unimp
 254:	0000                	unimp
 256:	0000                	unimp
 258:	0e42                	slli	t3,t3,0x10
 25a:	4210                	lw	a2,0(a2)
 25c:	0281                	addi	t0,t0,0
 25e:	c15a                	sw	s6,128(sp)
 260:	0e42                	slli	t3,t3,0x10
 262:	0000                	unimp
 264:	0000                	unimp
 266:	0000                	unimp
 268:	0024                	addi	s1,sp,8
 26a:	0000                	unimp
 26c:	0058                	addi	a4,sp,4
 26e:	0000                	unimp
 270:	03a2                	slli	t2,t2,0x8
 272:	0001                	nop
 274:	0000                	unimp
 276:	0000                	unimp
 278:	0022                	c.slli	zero,0x8
 27a:	0000                	unimp
 27c:	0000                	unimp
 27e:	0000                	unimp
 280:	0e42                	slli	t3,t3,0x10
 282:	4210                	lw	a2,0(a2)
 284:	0281                	addi	t0,t0,0
 286:	c15a                	sw	s6,128(sp)
 288:	0e42                	slli	t3,t3,0x10
 28a:	0000                	unimp
 28c:	0000                	unimp
 28e:	0000                	unimp
 290:	0024                	addi	s1,sp,8
 292:	0000                	unimp
 294:	0058                	addi	a4,sp,4
 296:	0000                	unimp
 298:	03c4                	addi	s1,sp,452
 29a:	0001                	nop
 29c:	0000                	unimp
 29e:	0000                	unimp
 2a0:	0022                	c.slli	zero,0x8
 2a2:	0000                	unimp
 2a4:	0000                	unimp
 2a6:	0000                	unimp
 2a8:	0e42                	slli	t3,t3,0x10
 2aa:	4210                	lw	a2,0(a2)
 2ac:	0281                	addi	t0,t0,0
 2ae:	c15a                	sw	s6,128(sp)
 2b0:	0e42                	slli	t3,t3,0x10
 2b2:	0000                	unimp
 2b4:	0000                	unimp
 2b6:	0000                	unimp
 2b8:	0024                	addi	s1,sp,8
 2ba:	0000                	unimp
 2bc:	0058                	addi	a4,sp,4
 2be:	0000                	unimp
 2c0:	03e6                	slli	t2,t2,0x19
 2c2:	0001                	nop
 2c4:	0000                	unimp
 2c6:	0000                	unimp
 2c8:	0022                	c.slli	zero,0x8
 2ca:	0000                	unimp
 2cc:	0000                	unimp
 2ce:	0000                	unimp
 2d0:	0e42                	slli	t3,t3,0x10
 2d2:	4210                	lw	a2,0(a2)
 2d4:	0281                	addi	t0,t0,0
 2d6:	c15a                	sw	s6,128(sp)
 2d8:	0e42                	slli	t3,t3,0x10
 2da:	0000                	unimp
 2dc:	0000                	unimp
 2de:	0000                	unimp
 2e0:	0024                	addi	s1,sp,8
 2e2:	0000                	unimp
 2e4:	0058                	addi	a4,sp,4
 2e6:	0000                	unimp
 2e8:	0408                	addi	a0,sp,512
 2ea:	0001                	nop
 2ec:	0000                	unimp
 2ee:	0000                	unimp
 2f0:	0022                	c.slli	zero,0x8
 2f2:	0000                	unimp
 2f4:	0000                	unimp
 2f6:	0000                	unimp
 2f8:	0e42                	slli	t3,t3,0x10
 2fa:	4210                	lw	a2,0(a2)
 2fc:	0281                	addi	t0,t0,0
 2fe:	c15a                	sw	s6,128(sp)
 300:	0e42                	slli	t3,t3,0x10
 302:	0000                	unimp
 304:	0000                	unimp
 306:	0000                	unimp
 308:	0024                	addi	s1,sp,8
 30a:	0000                	unimp
 30c:	0058                	addi	a4,sp,4
 30e:	0000                	unimp
 310:	042a                	slli	s0,s0,0xa
 312:	0001                	nop
 314:	0000                	unimp
 316:	0000                	unimp
 318:	0022                	c.slli	zero,0x8
 31a:	0000                	unimp
 31c:	0000                	unimp
 31e:	0000                	unimp
 320:	0e42                	slli	t3,t3,0x10
 322:	4210                	lw	a2,0(a2)
 324:	0281                	addi	t0,t0,0
 326:	c15a                	sw	s6,128(sp)
 328:	0e42                	slli	t3,t3,0x10
 32a:	0000                	unimp
 32c:	0000                	unimp
 32e:	0000                	unimp
 330:	0024                	addi	s1,sp,8
 332:	0000                	unimp
 334:	0058                	addi	a4,sp,4
 336:	0000                	unimp
 338:	044c                	addi	a1,sp,516
 33a:	0001                	nop
 33c:	0000                	unimp
 33e:	0000                	unimp
 340:	0022                	c.slli	zero,0x8
 342:	0000                	unimp
 344:	0000                	unimp
 346:	0000                	unimp
 348:	0e42                	slli	t3,t3,0x10
 34a:	4210                	lw	a2,0(a2)
 34c:	0281                	addi	t0,t0,0
 34e:	c15a                	sw	s6,128(sp)
 350:	0e42                	slli	t3,t3,0x10
 352:	0000                	unimp
 354:	0000                	unimp
 356:	0000                	unimp
 358:	0024                	addi	s1,sp,8
 35a:	0000                	unimp
 35c:	0058                	addi	a4,sp,4
 35e:	0000                	unimp
 360:	046e                	slli	s0,s0,0x1b
 362:	0001                	nop
 364:	0000                	unimp
 366:	0000                	unimp
 368:	0022                	c.slli	zero,0x8
 36a:	0000                	unimp
 36c:	0000                	unimp
 36e:	0000                	unimp
 370:	0e42                	slli	t3,t3,0x10
 372:	4210                	lw	a2,0(a2)
 374:	0281                	addi	t0,t0,0
 376:	c15a                	sw	s6,128(sp)
 378:	0e42                	slli	t3,t3,0x10
 37a:	0000                	unimp
 37c:	0000                	unimp
 37e:	0000                	unimp
 380:	0024                	addi	s1,sp,8
 382:	0000                	unimp
 384:	0058                	addi	a4,sp,4
 386:	0000                	unimp
 388:	0490                	addi	a2,sp,576
 38a:	0001                	nop
 38c:	0000                	unimp
 38e:	0000                	unimp
 390:	0022                	c.slli	zero,0x8
 392:	0000                	unimp
 394:	0000                	unimp
 396:	0000                	unimp
 398:	0e42                	slli	t3,t3,0x10
 39a:	4210                	lw	a2,0(a2)
 39c:	0281                	addi	t0,t0,0
 39e:	c15a                	sw	s6,128(sp)
 3a0:	0e42                	slli	t3,t3,0x10
 3a2:	0000                	unimp
 3a4:	0000                	unimp
 3a6:	0000                	unimp
 3a8:	0024                	addi	s1,sp,8
 3aa:	0000                	unimp
 3ac:	0058                	addi	a4,sp,4
 3ae:	0000                	unimp
 3b0:	04b2                	slli	s1,s1,0xc
 3b2:	0001                	nop
 3b4:	0000                	unimp
 3b6:	0000                	unimp
 3b8:	0022                	c.slli	zero,0x8
 3ba:	0000                	unimp
 3bc:	0000                	unimp
 3be:	0000                	unimp
 3c0:	0e42                	slli	t3,t3,0x10
 3c2:	4210                	lw	a2,0(a2)
 3c4:	0281                	addi	t0,t0,0
 3c6:	c15a                	sw	s6,128(sp)
 3c8:	0e42                	slli	t3,t3,0x10
 3ca:	0000                	unimp
 3cc:	0000                	unimp
 3ce:	0000                	unimp
 3d0:	000c                	0xc
 3d2:	0000                	unimp
 3d4:	ffff                	0xffff
 3d6:	ffff                	0xffff
 3d8:	7c010003          	lb	zero,1984(sp)
 3dc:	0d01                	addi	s10,s10,0
 3de:	0002                	c.slli64	zero
 3e0:	0024                	addi	s1,sp,8
 3e2:	0000                	unimp
 3e4:	03d0                	addi	a2,sp,452
 3e6:	0000                	unimp
 3e8:	04d4                	addi	a3,sp,580
 3ea:	0001                	nop
 3ec:	0000                	unimp
 3ee:	0000                	unimp
 3f0:	01e2                	slli	gp,gp,0x18
 3f2:	0000                	unimp
 3f4:	0000                	unimp
 3f6:	0000                	unimp
 3f8:	0e42                	slli	t3,t3,0x10
 3fa:	0310                	addi	a2,sp,384
 3fc:	01d2                	slli	gp,gp,0x14
 3fe:	0e0a                	slli	t3,t3,0x2
 400:	4200                	lw	s0,0(a2)
 402:	0000000b          	0xb
 406:	0000                	unimp
 408:	000c                	0xc
 40a:	0000                	unimp
 40c:	ffff                	0xffff
 40e:	ffff                	0xffff
 410:	7c010003          	lb	zero,1984(sp)
 414:	0d01                	addi	s10,s10,0
 416:	0002                	c.slli64	zero
 418:	0014                	0x14
 41a:	0000                	unimp
 41c:	0408                	addi	a0,sp,512
 41e:	0000                	unimp
 420:	06b6                	slli	a3,a3,0xd
 422:	0001                	nop
 424:	0000                	unimp
 426:	0000                	unimp
 428:	0038                	addi	a4,sp,8
 42a:	0000                	unimp
 42c:	0000                	unimp
 42e:	0000                	unimp
 430:	0014                	0x14
 432:	0000                	unimp
 434:	0408                	addi	a0,sp,512
 436:	0000                	unimp
 438:	06ee                	slli	a3,a3,0x1b
 43a:	0001                	nop
 43c:	0000                	unimp
 43e:	0000                	unimp
 440:	0044                	addi	s1,sp,4
 442:	0000                	unimp
 444:	0000                	unimp
 446:	0000                	unimp
 448:	0014                	0x14
 44a:	0000                	unimp
 44c:	0408                	addi	a0,sp,512
 44e:	0000                	unimp
 450:	0732                	slli	a4,a4,0xc
 452:	0001                	nop
 454:	0000                	unimp
 456:	0000                	unimp
 458:	0012                	c.slli	zero,0x4
 45a:	0000                	unimp
 45c:	0000                	unimp
 45e:	0000                	unimp
 460:	0014                	0x14
 462:	0000                	unimp
 464:	0408                	addi	a0,sp,512
 466:	0000                	unimp
 468:	0744                	addi	s1,sp,900
 46a:	0001                	nop
 46c:	0000                	unimp
 46e:	0000                	unimp
 470:	0018                	0x18
 472:	0000                	unimp
 474:	0000                	unimp
 476:	0000                	unimp
 478:	0014                	0x14
 47a:	0000                	unimp
 47c:	0408                	addi	a0,sp,512
 47e:	0000                	unimp
 480:	075c                	addi	a5,sp,900
 482:	0001                	nop
 484:	0000                	unimp
 486:	0000                	unimp
 488:	0012                	c.slli	zero,0x4
 48a:	0000                	unimp
 48c:	0000                	unimp
 48e:	0000                	unimp
 490:	0014                	0x14
 492:	0000                	unimp
 494:	0408                	addi	a0,sp,512
 496:	0000                	unimp
 498:	076e                	slli	a4,a4,0x1b
 49a:	0001                	nop
 49c:	0000                	unimp
 49e:	0000                	unimp
 4a0:	0016                	c.slli	zero,0x5
 4a2:	0000                	unimp
 4a4:	0000                	unimp
 4a6:	0000                	unimp
 4a8:	0034                	addi	a3,sp,8
 4aa:	0000                	unimp
 4ac:	0408                	addi	a0,sp,512
 4ae:	0000                	unimp
 4b0:	0784                	addi	s1,sp,960
 4b2:	0001                	nop
 4b4:	0000                	unimp
 4b6:	0000                	unimp
 4b8:	0088                	addi	a0,sp,64
 4ba:	0000                	unimp
 4bc:	0000                	unimp
 4be:	0000                	unimp
 4c0:	0e42                	slli	t3,t3,0x10
 4c2:	4a30                	lw	a2,80(a2)
 4c4:	0281                	addi	t0,t0,0
 4c6:	0488                	addi	a0,sp,576
 4c8:	0689                	addi	a3,a3,2
 4ca:	0892                	slli	a7,a7,0x4
 4cc:	66020a93          	addi	s5,tp,1632 # 660 <main-0xfa50>
 4d0:	c10a                	sw	sp,128(sp)
 4d2:	c842                	sw	a6,16(sp)
 4d4:	c942                	sw	a6,144(sp)
 4d6:	d242                	sw	a6,36(sp)
 4d8:	d342                	sw	a6,164(sp)
 4da:	0e42                	slli	t3,t3,0x10
 4dc:	4200                	lw	s0,0(a2)
 4de:	002c000b          	0x2c000b
 4e2:	0000                	unimp
 4e4:	0408                	addi	a0,sp,512
 4e6:	0000                	unimp
 4e8:	080c                	addi	a1,sp,16
 4ea:	0001                	nop
 4ec:	0000                	unimp
 4ee:	0000                	unimp
 4f0:	0024                	addi	s1,sp,8
 4f2:	0000                	unimp
 4f4:	0000                	unimp
 4f6:	0000                	unimp
 4f8:	0e42                	slli	t3,t3,0x10
 4fa:	4620                	lw	s0,72(a2)
 4fc:	0281                	addi	t0,t0,0
 4fe:	0488                	addi	a0,sp,576
 500:	0689                	addi	a3,a3,2
 502:	c154                	sw	a3,4(a0)
 504:	c842                	sw	a6,16(sp)
 506:	c942                	sw	a6,144(sp)
 508:	0e42                	slli	t3,t3,0x10
 50a:	0000                	unimp
 50c:	0000                	unimp
 50e:	0000                	unimp
 510:	0014                	0x14
 512:	0000                	unimp
 514:	0408                	addi	a0,sp,512
 516:	0000                	unimp
 518:	0830                	addi	a2,sp,24
 51a:	0001                	nop
 51c:	0000                	unimp
 51e:	0000                	unimp
 520:	0054                	addi	a3,sp,4
 522:	0000                	unimp
 524:	0000                	unimp
 526:	0000                	unimp
 528:	0014                	0x14
 52a:	0000                	unimp
 52c:	0408                	addi	a0,sp,512
 52e:	0000                	unimp
 530:	0884                	addi	s1,sp,80
 532:	0001                	nop
 534:	0000                	unimp
 536:	0000                	unimp
 538:	0046                	c.slli	zero,0x11
 53a:	0000                	unimp
 53c:	0000                	unimp
 53e:	0000                	unimp
 540:	0014                	0x14
 542:	0000                	unimp
 544:	0408                	addi	a0,sp,512
 546:	0000                	unimp
 548:	08ca                	slli	a7,a7,0x12
 54a:	0001                	nop
 54c:	0000                	unimp
 54e:	0000                	unimp
 550:	002c                	addi	a1,sp,8
 552:	0000                	unimp
 554:	0000                	unimp
	...

Disassembly of section .debug_str:

0000000000000000 <.debug_str>:
   0:	6f6c                	ld	a1,216(a4)
   2:	676e                	ld	a4,216(sp)
   4:	6c20                	ld	s0,88(s0)
   6:	20676e6f          	jal	t3,7620c <__global_pointer$+0x64008>
   a:	6e69                	lui	t3,0x1a
   c:	0074                	addi	a3,sp,12
   e:	6572                	ld	a0,280(sp)
  10:	6461                	lui	s0,0x18
  12:	755f 6300 6d6f      	0x6d6f6300755f
  18:	616d                	addi	sp,sp,240
  1a:	646e                	ld	s0,216(sp)
  1c:	6e00                	ld	s0,24(a2)
  1e:	6961                	lui	s2,0x18
  20:	6576                	ld	a0,344(sp)
  22:	6d5f 6c61 6f6c      	0x6f6c6c616d5f
  28:	6e750063          	beq	a0,t2,708 <main-0xf9a8>
  2c:	6e676973          	csrrsi	s2,0x6e6,14
  30:	6465                	lui	s0,0x19
  32:	6320                	ld	s0,64(a4)
  34:	6168                	ld	a0,192(a0)
  36:	0072                	c.slli	zero,0x1c
  38:	414d                	li	sp,19
  3a:	4258                	lw	a4,4(a2)
  3c:	4655                	li	a2,21
  3e:	7300                	ld	s0,32(a4)
  40:	6174                	ld	a3,192(a0)
  42:	7472                	ld	s0,312(sp)
  44:	7300                	ld	s0,32(a4)
  46:	6f68                	ld	a0,216(a4)
  48:	7472                	ld	s0,312(sp)
  4a:	7520                	ld	s0,104(a0)
  4c:	736e                	ld	t1,248(sp)
  4e:	6769                	lui	a4,0x1a
  50:	656e                	ld	a0,216(sp)
  52:	2064                	fld	fs1,192(s0)
  54:	6e69                	lui	t3,0x1a
  56:	0074                	addi	a3,sp,12
  58:	6564                	ld	s1,200(a0)
  5a:	696c                	ld	a1,208(a0)
  5c:	006d                	c.nop	27
  5e:	63727473          	csrrci	s0,0x637,4
  62:	706d                	c.lui	zero,0xffffb
  64:	7300                	ld	s0,32(a4)
  66:	6f68                	ld	a0,216(a4)
  68:	7472                	ld	s0,312(sp)
  6a:	6920                	ld	s0,80(a0)
  6c:	746e                	ld	s0,248(sp)
  6e:	7700                	ld	s0,40(a4)
  70:	6961                	lui	s2,0x18
  72:	0074                	addi	a3,sp,12
  74:	616d                	addi	sp,sp,240
  76:	6e69                	lui	t3,0x1a
  78:	6500                	ld	s0,8(a0)
  7a:	6578                	ld	a4,200(a0)
  7c:	6f660063          	beq	a2,s6,75c <main-0xf954>
  80:	6b72                	ld	s6,280(sp)
  82:	7300                	ld	s0,32(a4)
  84:	7274                	ld	a3,224(a2)
  86:	6f74                	ld	a3,216(a4)
  88:	6f6c006b          	0x6f6c006b
  8c:	676e                	ld	a4,216(sp)
  8e:	6c20                	ld	s0,88(s0)
  90:	20676e6f          	jal	t3,76296 <__global_pointer$+0x64092>
  94:	6e75                	lui	t3,0x1d
  96:	6e676973          	csrrsi	s2,0x6e6,14
  9a:	6465                	lui	s0,0x19
  9c:	6920                	ld	s0,80(a0)
  9e:	746e                	ld	s0,248(sp)
  a0:	6100                	ld	s0,0(a0)
  a2:	6772                	ld	a4,280(sp)
  a4:	4e470063          	beq	a4,tp,584 <main-0xfb2c>
  a8:	2055                	0x2055
  aa:	20393943          	fmadd.s	fs2,fs2,ft3,ft4,rup
  ae:	3131                	addiw	sp,sp,-20
  b0:	312e                	fld	ft2,232(sp)
  b2:	302e                	fld	ft0,232(sp)
  b4:	2d20                	fld	fs0,88(a0)
  b6:	636d                	lui	t1,0x1b
  b8:	6f6d                	lui	t5,0x1b
  ba:	6564                	ld	s1,200(a0)
  bc:	3d6c                	fld	fa1,248(a0)
  be:	656d                	lui	a0,0x1b
  c0:	6164                	ld	s1,192(a0)
  c2:	796e                	ld	s2,248(sp)
  c4:	2d20                	fld	fs0,88(a0)
  c6:	746d                	lui	s0,0xffffb
  c8:	6e75                	lui	t3,0x1d
  ca:	3d65                	addiw	s10,s10,-7
  cc:	6f72                	ld	t5,280(sp)
  ce:	74656b63          	bltu	a0,t1,824 <main-0xf88c>
  d2:	2d20                	fld	fs0,88(a0)
  d4:	616d                	addi	sp,sp,240
  d6:	6372                	ld	t1,280(sp)
  d8:	3d68                	fld	fa0,248(a0)
  da:	7672                	ld	a2,312(sp)
  dc:	3436                	fld	fs0,360(sp)
  de:	6d69                	lui	s10,0x1a
  e0:	6661                	lui	a2,0x18
  e2:	6364                	ld	s1,192(a4)
  e4:	2d20                	fld	fs0,88(a0)
  e6:	616d                	addi	sp,sp,240
  e8:	6962                	ld	s2,24(sp)
  ea:	6c3d                	lui	s8,0xf
  ec:	3670                	fld	fa2,232(a2)
  ee:	6434                	ld	a3,72(s0)
  f0:	2d20                	fld	fs0,88(a0)
  f2:	616d                	addi	sp,sp,240
  f4:	6372                	ld	t1,280(sp)
  f6:	3d68                	fld	fa0,248(a0)
  f8:	7672                	ld	a2,312(sp)
  fa:	3436                	fld	fs0,360(sp)
  fc:	6d69                	lui	s10,0x1a
  fe:	6661                	lui	a2,0x18
 100:	6364                	ld	s1,192(a4)
 102:	2d20                	fld	fs0,88(a0)
 104:	4f2d2067          	0x4f2d2067
 108:	732d2067          	0x732d2067
 10c:	6474                	ld	a3,200(s0)
 10e:	673d                	lui	a4,0xf
 110:	756e                	ld	a0,248(sp)
 112:	3939                	addiw	s2,s2,-18
 114:	2d20                	fld	fs0,88(a0)
 116:	6e66                	ld	t3,88(sp)
 118:	75622d6f          	jal	s10,2286e <__global_pointer$+0x1066a>
 11c:	6c69                	lui	s8,0x1a
 11e:	6974                	ld	a3,208(a0)
 120:	206e                	fld	ft0,216(sp)
 122:	662d                	lui	a2,0xb
 124:	6f6e                	ld	t5,216(sp)
 126:	642d                	lui	s0,0xb
 128:	6c65                	lui	s8,0x19
 12a:	7465                	lui	s0,0xffff9
 12c:	2d65                	addiw	s10,s10,25
 12e:	756e                	ld	a0,248(sp)
 130:	6c6c                	ld	a1,216(s0)
 132:	702d                	c.lui	zero,0xfffeb
 134:	746e696f          	jal	s2,e687a <__global_pointer$+0xd4676>
 138:	7265                	lui	tp,0xffff9
 13a:	632d                	lui	t1,0xb
 13c:	6568                	ld	a0,200(a0)
 13e:	20736b63          	bltu	t1,t2,354 <main-0xfd5c>
 142:	662d                	lui	a2,0xb
 144:	6f6e                	ld	t5,216(sp)
 146:	502d                	c.li	zero,-21
 148:	4549                	li	a0,18
 14a:	7500                	ld	s0,40(a0)
 14c:	6e69                	lui	t3,0x1a
 14e:	3674                	fld	fa3,232(a2)
 150:	0034                	addi	a3,sp,8
 152:	6170                	ld	a2,192(a0)
 154:	6172                	ld	sp,280(sp)
 156:	6f00                	ld	s0,24(a4)
 158:	6570                	ld	a2,200(a0)
 15a:	006e                	c.slli	zero,0x1b
 15c:	7865                	lui	a6,0xffff9
 15e:	7469                	lui	s0,0xffffa
 160:	6100                	ld	s0,0(a0)
 162:	6772                	ld	a4,280(sp)
 164:	0076                	c.slli	zero,0x1d
 166:	6f74                	ld	a3,216(a4)
 168:	006e656b          	0x6e656b
 16c:	7270                	ld	a2,224(a2)
 16e:	6e69                	lui	t3,0x1a
 170:	7574                	ld	a3,232(a0)
 172:	6300                	ld	s0,0(a4)
 174:	6f6c                	ld	a1,216(a4)
 176:	73006573          	csrrsi	a0,0x730,0
 17a:	5f74                	lw	a3,124(a4)
 17c:	657a6973          	csrrsi	s2,0x657,20
 180:	6f00                	ld	s0,24(a4)
 182:	6570                	ld	a2,200(a0)
 184:	646e                	ld	s0,216(sp)
 186:	7269                	lui	tp,0xffffa
 188:	755f 7300 7a69      	0x7a697300755f
 18e:	5f65                	li	t5,-7
 190:	0074                	addi	a3,sp,12
 192:	5f5f 6970 5f64      	0x5f6469705f5f
 198:	0074                	addi	a3,sp,12
 19a:	616e                	ld	sp,216(sp)
 19c:	7669                	lui	a2,0xffffa
 19e:	5f65                	li	t5,-7
 1a0:	7266                	ld	tp,120(sp)
 1a2:	6565                	lui	a0,0x19
 1a4:	6400                	ld	s0,8(s0)
 1a6:	7269                	lui	tp,0xffffa
 1a8:	616e                	ld	sp,216(sp)
 1aa:	656d                	lui	a0,0x1b
 1ac:	7700                	ld	s0,40(a4)
 1ae:	6972                	ld	s2,280(sp)
 1b0:	6574                	ld	a3,200(a0)
 1b2:	755f 6f00 6666      	0x66666f00755f
 1b8:	00746573          	csrrsi	a0,0x7,8
 1bc:	6f64                	ld	s1,216(a4)
 1be:	755f 6573 5f72      	0x5f726573755f
 1c4:	6c6c6163          	bltu	s8,t1,886 <main-0xf82a>
 1c8:	6600                	ld	s0,8(a2)
 1ca:	616c                	ld	a1,192(a0)
 1cc:	73007367          	0x73007367
 1d0:	5f74                	lw	a3,124(a4)
 1d2:	6e69                	lui	t3,0x1a
 1d4:	6d75                	lui	s10,0x1d
 1d6:	6300                	ld	s0,0(a4)
 1d8:	0065646f          	jal	s0,561de <__global_pointer$+0x43fda>
 1dc:	6e75                	lui	t3,0x1d
 1de:	696c                	ld	a1,208(a0)
 1e0:	6b6e                	ld	s6,216(sp)
 1e2:	755f 6900 7473      	0x74736900755f
 1e8:	7461                	lui	s0,0xffff8
 1ea:	7600                	ld	s0,40(a2)
 1ec:	72706e73          	csrrsi	t3,0x727,0
 1f0:	6e69                	lui	t3,0x1a
 1f2:	6674                	ld	a3,200(a2)
 1f4:	7200                	ld	s0,32(a2)
 1f6:	6165                	addi	sp,sp,112
 1f8:	6464                	ld	s1,200(s0)
 1fa:	7269                	lui	tp,0xffffa
 1fc:	755f 7300 5f74      	0x5f747300755f
 202:	6c62                	ld	s8,24(sp)
 204:	736b636f          	jal	t1,b693a <__global_pointer$+0xa4736>
 208:	7300                	ld	s0,32(a4)
 20a:	7379                	lui	t1,0xffffe
 20c:	756e                	ld	a0,248(sp)
 20e:	006d                	c.nop	27
 210:	736f6c63          	bltu	t5,s6,948 <main-0xf768>
 214:	6465                	lui	s0,0x19
 216:	7269                	lui	tp,0xffffa
 218:	755f 7900 6569      	0x65697900755f
 21e:	646c                	ld	a1,200(s0)
 220:	7000                	ld	s0,32(s0)
 222:	7461                	lui	s0,0xffff8
 224:	6e68                	ld	a0,216(a2)
 226:	6d61                	lui	s10,0x18
 228:	0065                	c.nop	25
 22a:	5f5f 7562 6c69      	0x6c6975625f5f
 230:	6974                	ld	a3,208(a0)
 232:	5f6e                	lw	t5,248(sp)
 234:	6176                	ld	sp,344(sp)
 236:	6c5f 7369 0074      	0x7473696c5f
 23c:	745f7473          	csrrci	s0,0x745,30
 240:	7079                	c.lui	zero,0xffffe
 242:	0065                	c.nop	25
 244:	6e5f7473          	csrrci	s0,0x6e5,30
 248:	696c                	ld	a1,208(a0)
 24a:	6b6e                	ld	s6,216(sp)
 24c:	6f630073          	0x6f630073
 250:	6e75                	lui	t3,0x1d
 252:	0074                	addi	a3,sp,12
 254:	6b6d                	lui	s6,0x1b
 256:	6964                	ld	s1,208(a0)
 258:	5f72                	lw	t5,60(sp)
 25a:	0075                	c.nop	29
 25c:	6170                	ld	a2,192(a0)
 25e:	6874                	ld	a3,208(s0)
 260:	6c00                	ld	s0,24(s0)
 262:	6b656573          	csrrsi	a0,0x6b6,10
 266:	755f 5f00 675f      	0x675f5f00755f
 26c:	756e                	ld	a0,248(sp)
 26e:	61765f63          	bge	a2,s7,88c <main-0xf824>
 272:	6c5f 7369 0074      	0x7473696c5f
 278:	6e656877          	0x6e656877
 27c:	64006563          	bltu	zero,zero,8c6 <main-0xf7ea>
 280:	7369                	lui	t1,0xffffa
 282:	74735f6b          	0x74735f6b
 286:	7461                	lui	s0,0xffff8
 288:	755f 6200 6f6f      	0x6f6f6200755f
 28e:	006c                	addi	a1,sp,12
 290:	6f66                	ld	t5,88(sp)
 292:	6d72                	ld	s10,280(sp)
 294:	7461                	lui	s0,0xffff8
 296:	6900                	ld	s0,16(a0)
 298:	746e                	ld	s0,248(sp)
 29a:	64003233          	0x64003233
 29e:	6769                	lui	a4,0x1a
 2a0:	7469                	lui	s0,0xffffa
 2a2:	6f6c0073          	0x6f6c0073
 2a6:	676e                	ld	a4,216(sp)
 2a8:	7261                	lui	tp,0xffff8
 2aa:	6f770067          	jr	1783(a4) # 1a6f7 <__global_pointer$+0x84f3>
 2ae:	6472                	ld	s0,280(sp)
 2b0:	6400                	ld	s0,8(s0)
 2b2:	7365                	lui	t1,0xffff9
 2b4:	0074                	addi	a3,sp,12
 2b6:	656d                	lui	a0,0x1b
 2b8:	636d                	lui	t1,0x1b
 2ba:	7970                	ld	a2,240(a0)
 2bc:	6d00                	ld	s0,24(a0)
 2be:	6d65                	lui	s10,0x19
 2c0:	00746573          	csrrsi	a0,0x7,8
 2c4:	7461                	lui	s0,0xffff8
 2c6:	6d006c6f          	jal	s8,6996 <main-0x971a>
 2ca:	6d65                	lui	s10,0x19
 2cc:	6f6d                	lui	t5,0x1b
 2ce:	6576                	ld	a0,344(sp)
 2d0:	7300                	ld	s0,32(a4)
 2d2:	7274                	ld	a3,224(a2)
 2d4:	00726863          	bltu	tp,t2,2e4 <main-0xfdcc>
 2d8:	72727563          	bgeu	tp,t2,a02 <main-0xf6ae>
 2dc:	6e65                	lui	t3,0x19
 2de:	0074                	addi	a3,sp,12
 2e0:	65666173          	csrrsi	sp,0x656,12
 2e4:	63727473          	csrrci	s0,0x637,4
 2e8:	7970                	ld	a2,240(a0)
 2ea:	7300                	ld	s0,32(a4)
 2ec:	7274                	ld	a3,224(a2)
 2ee:	00746163          	bltu	s0,t2,2f0 <main-0xfdc0>
 2f2:	6c727473          	csrrci	s0,0x6c7,4
 2f6:	6e65                	lui	t3,0x19
 2f8:	7300                	ld	s0,32(a4)
 2fa:	6769                	lui	a4,0x1a
 2fc:	006e                	c.slli	zero,0x1b
 2fe:	5f5f 6975 746e      	0x746e69755f5f
 304:	7470                	ld	a2,232(s0)
 306:	5f72                	lw	t5,60(sp)
 308:	0074                	addi	a3,sp,12
 30a:	7962                	ld	s2,56(sp)
 30c:	6574                	ld	a3,200(a0)
	...

Disassembly of section .debug_line_str:

0000000000000000 <.debug_line_str>:
   0:	6d6f682f          	0x6d6f682f
   4:	2f65                	addiw	t5,t5,25
   6:	7468                	ld	a0,232(s0)
   8:	5355482f          	0x5355482f
   c:	2d54                	fld	fa3,152(a0)
   e:	4b50                	lw	a2,20(a4)
  10:	2f45                	addiw	t5,t5,17
  12:	6972                	ld	s2,280(sp)
  14:	2d766373          	csrrsi	t1,0x2d7,12
  18:	6b70                	ld	a2,208(a4)
  1a:	0065                	c.nop	25
  1c:	7375                	lui	t1,0xffffd
  1e:	7265                	lui	tp,0xffff9
  20:	7070612f          	0x7070612f
  24:	735f 6568 6c6c      	0x6c6c6568735f
  2a:	632e                	ld	t1,200(sp)
  2c:	7500                	ld	s0,40(a0)
  2e:	00726573          	csrrsi	a0,0x7,4
  32:	6d6f682f          	0x6d6f682f
  36:	2f65                	addiw	t5,t5,25
  38:	7468                	ld	a0,232(s0)
  3a:	5355482f          	0x5355482f
  3e:	2d54                	fld	fa3,152(a0)
  40:	4b50                	lw	a2,20(a4)
  42:	2f45                	addiw	t5,t5,17
  44:	6972                	ld	s2,280(sp)
  46:	36766373          	csrrsi	t1,0x367,12
  4a:	2d34                	fld	fa3,88(a0)
  4c:	6c65                	lui	s8,0x19
  4e:	2d66                	fld	fs10,88(sp)
  50:	2f636367          	0x2f636367
  54:	6972                	ld	s2,280(sp)
  56:	36766373          	csrrsi	t1,0x367,12
  5a:	2d34                	fld	fa3,88(a0)
  5c:	6e75                	lui	t3,0x1d
  5e:	776f6e6b          	0x776f6e6b
  62:	2d6e                	fld	fs10,216(sp)
  64:	6c65                	lui	s8,0x19
  66:	2f66                	fld	ft10,88(sp)
  68:	6e69                	lui	t3,0x1a
  6a:	64756c63          	bltu	a0,t2,6c2 <main-0xf9ee>
  6e:	0065                	c.nop	25
  70:	6d6f682f          	0x6d6f682f
  74:	2f65                	addiw	t5,t5,25
  76:	7468                	ld	a0,232(s0)
  78:	5355482f          	0x5355482f
  7c:	2d54                	fld	fa3,152(a0)
  7e:	4b50                	lw	a2,20(a4)
  80:	2f45                	addiw	t5,t5,17
  82:	6972                	ld	s2,280(sp)
  84:	36766373          	csrrsi	t1,0x367,12
  88:	2d34                	fld	fa3,88(a0)
  8a:	6c65                	lui	s8,0x19
  8c:	2d66                	fld	fs10,88(sp)
  8e:	2f636367          	0x2f636367
  92:	6972                	ld	s2,280(sp)
  94:	36766373          	csrrsi	t1,0x367,12
  98:	2d34                	fld	fa3,88(a0)
  9a:	6e75                	lui	t3,0x1d
  9c:	776f6e6b          	0x776f6e6b
  a0:	2d6e                	fld	fs10,216(sp)
  a2:	6c65                	lui	s8,0x19
  a4:	2f66                	fld	ft10,88(sp)
  a6:	6e69                	lui	t3,0x1a
  a8:	64756c63          	bltu	a0,t2,700 <main-0xf9b0>
  ac:	2f65                	addiw	t5,t5,25
  ae:	00737973          	csrrci	s2,0x7,6
  b2:	2f2e                	fld	ft10,200(sp)
  b4:	7475                	lui	s0,0xffffd
  b6:	6c69                	lui	s8,0x1a
  b8:	7500                	ld	s0,40(a0)
  ba:	5f726573          	csrrsi	a0,0x5f7,4
  be:	696c                	ld	a1,208(a0)
  c0:	2e62                	fld	ft8,24(sp)
  c2:	0068                	addi	a0,sp,12
  c4:	69727473          	csrrci	s0,0x697,4
  c8:	676e                	ld	a4,216(sp)
  ca:	682e                	ld	a6,200(sp)
  cc:	7500                	ld	s0,40(a0)
  ce:	696e                	ld	s2,216(sp)
  d0:	2e647473          	csrrci	s0,0x2e6,8
  d4:	0068                	addi	a0,sp,12
  d6:	7375                	lui	t1,0xffffd
  d8:	7265                	lui	tp,0xffff9
  da:	6573752f          	0x6573752f
  de:	5f72                	lw	t5,60(sp)
  e0:	696c                	ld	a1,208(a0)
  e2:	2e62                	fld	ft8,24(sp)
  e4:	682f0063          	beq	t5,sp,764 <main-0xf94c>
  e8:	2f656d6f          	jal	s10,563de <__global_pointer$+0x441da>
  ec:	7468                	ld	a0,232(s0)
  ee:	5355482f          	0x5355482f
  f2:	2d54                	fld	fa3,152(a0)
  f4:	4b50                	lw	a2,20(a4)
  f6:	2f45                	addiw	t5,t5,17
  f8:	6972                	ld	s2,280(sp)
  fa:	36766373          	csrrsi	t1,0x367,12
  fe:	2d34                	fld	fa3,88(a0)
 100:	6c65                	lui	s8,0x19
 102:	2d66                	fld	fs10,88(sp)
 104:	2f636367          	0x2f636367
 108:	696c                	ld	a1,208(a0)
 10a:	2f62                	fld	ft10,24(sp)
 10c:	2f636367          	0x2f636367
 110:	6972                	ld	s2,280(sp)
 112:	36766373          	csrrsi	t1,0x367,12
 116:	2d34                	fld	fa3,88(a0)
 118:	6e75                	lui	t3,0x1d
 11a:	776f6e6b          	0x776f6e6b
 11e:	2d6e                	fld	fs10,216(sp)
 120:	6c65                	lui	s8,0x19
 122:	2f66                	fld	ft10,88(sp)
 124:	3131                	addiw	sp,sp,-20
 126:	312e                	fld	ft2,232(sp)
 128:	302e                	fld	ft0,232(sp)
 12a:	636e692f          	0x636e692f
 12e:	756c                	ld	a1,232(a0)
 130:	6564                	ld	s1,200(a0)
 132:	7300                	ld	s0,32(a4)
 134:	6474                	ld	a3,200(s0)
 136:	7261                	lui	tp,0xffff8
 138:	00682e67          	0x682e67
 13c:	72706e73          	csrrsi	t3,0x727,0
 140:	6e69                	lui	t3,0x1a
 142:	6674                	ld	a3,200(a2)
 144:	682e                	ld	a6,200(sp)
 146:	7500                	ld	s0,40(a0)
 148:	6974                	ld	a3,208(a0)
 14a:	2f6c                	fld	fa1,216(a4)
 14c:	72706e73          	csrrsi	t3,0x727,0
 150:	6e69                	lui	t3,0x1a
 152:	6674                	ld	a3,200(a2)
 154:	632e                	ld	t1,200(sp)
 156:	7500                	ld	s0,40(a0)
 158:	6974                	ld	a3,208(a0)
 15a:	2f6c                	fld	fa1,216(a4)
 15c:	69727473          	csrrci	s0,0x697,4
 160:	676e                	ld	a4,216(sp)
 162:	632e                	ld	t1,200(sp)
 164:	2f00                	fld	fs0,24(a4)
 166:	6f68                	ld	a0,216(a4)
 168:	656d                	lui	a0,0x1b
 16a:	2f74682f          	0x2f74682f
 16e:	5548                	lw	a0,44(a0)
 170:	502d5453          	0x502d5453
 174:	722f454b          	fnmsub.d	fa0,ft10,ft2,fa4,rmm
 178:	7369                	lui	t1,0xffffa
 17a:	34367663          	bgeu	a2,gp,4c6 <main-0xfbea>
 17e:	652d                	lui	a0,0xb
 180:	666c                	ld	a1,200(a2)
 182:	672d                	lui	a4,0xb
 184:	722f6363          	bltu	t5,sp,8aa <main-0xf806>
 188:	7369                	lui	t1,0xffffa
 18a:	34367663          	bgeu	a2,gp,4d6 <main-0xfbda>
 18e:	752d                	lui	a0,0xfffeb
 190:	6b6e                	ld	s6,216(sp)
 192:	6f6e                	ld	t5,216(sp)
 194:	652d6e77          	0x652d6e77
 198:	666c                	ld	a1,200(a2)
 19a:	636e692f          	0x636e692f
 19e:	756c                	ld	a1,232(a0)
 1a0:	6564                	ld	s1,200(a0)
 1a2:	63616d2f          	0x63616d2f
 1a6:	6968                	ld	a0,208(a0)
 1a8:	656e                	ld	a0,216(sp)
 1aa:	7300                	ld	s0,32(a4)
 1ac:	6474                	ld	a3,200(s0)
 1ae:	6564                	ld	s1,200(a0)
 1b0:	2e66                	fld	ft8,88(sp)
 1b2:	0068                	addi	a0,sp,12
 1b4:	645f 6665 7561      	0x75616665645f
 1ba:	746c                	ld	a1,232(s0)
 1bc:	745f 7079 7365      	0x73657079745f
 1c2:	682e                	ld	a6,200(sp)
 1c4:	5f00                	lw	s0,56(a4)
 1c6:	69647473          	csrrci	s0,0x696,8
 1ca:	746e                	ld	s0,248(sp)
 1cc:	682e                	ld	a6,200(sp)
	...

Disassembly of section .debug_loclists:

0000000000000000 <.debug_loclists>:
       0:	01be                	slli	gp,gp,0xf
       2:	0000                	unimp
       4:	0005                	c.nop	1
       6:	0008                	0x8
       8:	0000                	unimp
       a:	0000                	unimp
       c:	0100b007          	fld	ft0,16(ra)
      10:	0000                	unimp
      12:	0000                	unimp
      14:	c800                	sw	s0,16(s0)
      16:	0100                	addi	s0,sp,128
      18:	0000                	unimp
      1a:	0000                	unimp
      1c:	0100                	addi	s0,sp,128
      1e:	075a                	slli	a4,a4,0x16
      20:	00c8                	addi	a0,sp,68
      22:	0001                	nop
      24:	0000                	unimp
      26:	0000                	unimp
      28:	01d2                	slli	gp,gp,0x14
      2a:	0001                	nop
      2c:	0000                	unimp
      2e:	0000                	unimp
      30:	a304                	fsd	fs1,0(a4)
      32:	5a01                	li	s4,-32
      34:	009f b007 0100      	0x100b007009f
      3a:	0000                	unimp
      3c:	0000                	unimp
      3e:	cb00                	sw	s0,16(a4)
      40:	0100                	addi	s0,sp,128
      42:	0000                	unimp
      44:	0000                	unimp
      46:	0100                	addi	s0,sp,128
      48:	00cb075b          	0xcb075b
      4c:	0001                	nop
      4e:	0000                	unimp
      50:	0000                	unimp
      52:	01d2                	slli	gp,gp,0x14
      54:	0001                	nop
      56:	0000                	unimp
      58:	0000                	unimp
      5a:	a304                	fsd	fs1,0(a4)
      5c:	5b01                	li	s6,-32
      5e:	009f f007 0100      	0x100f007009f
      64:	0000                	unimp
      66:	0000                	unimp
      68:	0600                	addi	s0,sp,768
      6a:	0101                	addi	sp,sp,0
      6c:	0000                	unimp
      6e:	0000                	unimp
      70:	0100                	addi	s0,sp,128
      72:	0059                	c.nop	22
      74:	0100d207          	0x100d207
      78:	0000                	unimp
      7a:	0000                	unimp
      7c:	c200                	sw	s0,0(a2)
      7e:	0101                	addi	sp,sp,0
      80:	0000                	unimp
      82:	0000                	unimp
      84:	0200                	addi	s0,sp,256
      86:	0072                	c.slli	zero,0x1c
      88:	0101c207          	flq	ft4,16(gp) # 12214 <__global_pointer$+0x10>
      8c:	0000                	unimp
      8e:	0000                	unimp
      90:	ce00                	sw	s0,24(a2)
      92:	0101                	addi	sp,sp,0
      94:	0000                	unimp
      96:	0000                	unimp
      98:	0200                	addi	s0,sp,256
      9a:	0084                	addi	s1,sp,64
      9c:	0700                	addi	s0,sp,896
      9e:	011c                	addi	a5,sp,128
      a0:	0001                	nop
      a2:	0000                	unimp
      a4:	0000                	unimp
      a6:	011e                	slli	sp,sp,0x7
      a8:	0001                	nop
      aa:	0000                	unimp
      ac:	0000                	unimp
      ae:	5a01                	li	s4,-32
      b0:	01013e07          	fld	ft8,16(sp)
      b4:	0000                	unimp
      b6:	0000                	unimp
      b8:	4200                	lw	s0,0(a2)
      ba:	0101                	addi	sp,sp,0
      bc:	0000                	unimp
      be:	0000                	unimp
      c0:	0100                	addi	s0,sp,128
      c2:	075a                	slli	a4,a4,0x16
      c4:	0142                	slli	sp,sp,0x10
      c6:	0001                	nop
      c8:	0000                	unimp
      ca:	0000                	unimp
      cc:	0145                	addi	sp,sp,17
      ce:	0001                	nop
      d0:	0000                	unimp
      d2:	0000                	unimp
      d4:	5b01                	li	s6,-32
      d6:	01015207          	0x1015207
      da:	0000                	unimp
      dc:	0000                	unimp
      de:	5400                	lw	s0,40(s0)
      e0:	0101                	addi	sp,sp,0
      e2:	0000                	unimp
      e4:	0000                	unimp
      e6:	0100                	addi	s0,sp,128
      e8:	075a                	slli	a4,a4,0x16
      ea:	0154                	addi	a3,sp,132
      ec:	0001                	nop
      ee:	0000                	unimp
      f0:	0000                	unimp
      f2:	00010157          	0x10157
      f6:	0000                	unimp
      f8:	0000                	unimp
      fa:	5b01                	li	s6,-32
      fc:	0700                	addi	s0,sp,896
      fe:	0106                	slli	sp,sp,0x1
     100:	0001                	nop
     102:	0000                	unimp
     104:	0000                	unimp
     106:	01c8                	addi	a0,sp,196
     108:	0001                	nop
     10a:	0000                	unimp
     10c:	0000                	unimp
     10e:	5901                	li	s2,-32
     110:	0700                	addi	s0,sp,896
     112:	010c                	addi	a1,sp,128
     114:	0001                	nop
     116:	0000                	unimp
     118:	0000                	unimp
     11a:	0110                	addi	a2,sp,128
     11c:	0001                	nop
     11e:	0000                	unimp
     120:	0000                	unimp
     122:	5a01                	li	s4,-32
     124:	01011007          	0x1011007
     128:	0000                	unimp
     12a:	0000                	unimp
     12c:	ca00                	sw	s0,16(a2)
     12e:	0101                	addi	sp,sp,0
     130:	0000                	unimp
     132:	0000                	unimp
     134:	0100                	addi	s0,sp,128
     136:	0062                	c.slli	zero,0x18
     138:	01010c07          	0x1010c07
     13c:	0000                	unimp
     13e:	0000                	unimp
     140:	1000                	addi	s0,sp,32
     142:	0101                	addi	sp,sp,0
     144:	0000                	unimp
     146:	0000                	unimp
     148:	0200                	addi	s0,sp,256
     14a:	9f30                	0x9f30
     14c:	01011007          	0x1011007
     150:	0000                	unimp
     152:	0000                	unimp
     154:	3e00                	fld	fs0,56(a2)
     156:	0101                	addi	sp,sp,0
     158:	0000                	unimp
     15a:	0000                	unimp
     15c:	0100                	addi	s0,sp,128
     15e:	013e0763          	beq	t3,s3,16c <main-0xff44>
     162:	0001                	nop
     164:	0000                	unimp
     166:	0000                	unimp
     168:	0140                	addi	s0,sp,132
     16a:	0001                	nop
     16c:	0000                	unimp
     16e:	0000                	unimp
     170:	3102                	fld	ft2,32(sp)
     172:	079f 0140 0001      	0x10140079f
     178:	0000                	unimp
     17a:	0000                	unimp
     17c:	01cc                	addi	a1,sp,196
     17e:	0001                	nop
     180:	0000                	unimp
     182:	0000                	unimp
     184:	6301                	0x6301
     186:	0700                	addi	s0,sp,896
     188:	011e                	slli	sp,sp,0x7
     18a:	0001                	nop
     18c:	0000                	unimp
     18e:	0000                	unimp
     190:	0121                	addi	sp,sp,8
     192:	0001                	nop
     194:	0000                	unimp
     196:	0000                	unimp
     198:	5a01                	li	s4,-32
     19a:	01019807          	0x1019807
     19e:	0000                	unimp
     1a0:	0000                	unimp
     1a2:	9e00                	0x9e00
     1a4:	0101                	addi	sp,sp,0
     1a6:	0000                	unimp
     1a8:	0000                	unimp
     1aa:	0100                	addi	s0,sp,128
     1ac:	005a                	c.slli	zero,0x16
     1ae:	0101a207          	flw	ft4,16(gp) # 12214 <__global_pointer$+0x10>
     1b2:	0000                	unimp
     1b4:	0000                	unimp
     1b6:	b000                	fsd	fs0,32(s0)
     1b8:	0101                	addi	sp,sp,0
     1ba:	0000                	unimp
     1bc:	0000                	unimp
     1be:	0100                	addi	s0,sp,128
     1c0:	005a                	c.slli	zero,0x16
     1c2:	0708                	addi	a0,sp,896
     1c4:	0000                	unimp
     1c6:	0005                	c.nop	1
     1c8:	0008                	0x8
     1ca:	0000                	unimp
     1cc:	0000                	unimp
     1ce:	0104b207          	fld	ft4,16(s1)
     1d2:	0000                	unimp
     1d4:	0000                	unimp
     1d6:	c800                	sw	s0,16(s0)
     1d8:	0104                	addi	s1,sp,128
     1da:	0000                	unimp
     1dc:	0000                	unimp
     1de:	0100                	addi	s0,sp,128
     1e0:	075a                	slli	a4,a4,0x16
     1e2:	04c8                	addi	a0,sp,580
     1e4:	0001                	nop
     1e6:	0000                	unimp
     1e8:	0000                	unimp
     1ea:	04d4                	addi	a3,sp,580
     1ec:	0001                	nop
     1ee:	0000                	unimp
     1f0:	0000                	unimp
     1f2:	a304                	fsd	fs1,0(a4)
     1f4:	5a01                	li	s4,-32
     1f6:	009f 9007 0104      	0x1049007009f
     1fc:	0000                	unimp
     1fe:	0000                	unimp
     200:	a600                	fsd	fs0,8(a2)
     202:	0104                	addi	s1,sp,128
     204:	0000                	unimp
     206:	0000                	unimp
     208:	0100                	addi	s0,sp,128
     20a:	075a                	slli	a4,a4,0x16
     20c:	04a6                	slli	s1,s1,0x9
     20e:	0001                	nop
     210:	0000                	unimp
     212:	0000                	unimp
     214:	04b2                	slli	s1,s1,0xc
     216:	0001                	nop
     218:	0000                	unimp
     21a:	0000                	unimp
     21c:	a304                	fsd	fs1,0(a4)
     21e:	5a01                	li	s4,-32
     220:	009f 6e07 0104      	0x1046e07009f
     226:	0000                	unimp
     228:	0000                	unimp
     22a:	8400                	0x8400
     22c:	0104                	addi	s1,sp,128
     22e:	0000                	unimp
     230:	0000                	unimp
     232:	0100                	addi	s0,sp,128
     234:	075a                	slli	a4,a4,0x16
     236:	0484                	addi	s1,sp,576
     238:	0001                	nop
     23a:	0000                	unimp
     23c:	0000                	unimp
     23e:	00010487          	0x10487
     242:	0000                	unimp
     244:	0000                	unimp
     246:	5b01                	li	s6,-32
     248:	01048707          	0x1048707
     24c:	0000                	unimp
     24e:	0000                	unimp
     250:	9000                	0x9000
     252:	0104                	addi	s1,sp,128
     254:	0000                	unimp
     256:	0000                	unimp
     258:	0400                	addi	s0,sp,512
     25a:	9f5a01a3          	sb	s5,-1565(s4)
     25e:	0700                	addi	s0,sp,896
     260:	044c                	addi	a1,sp,516
     262:	0001                	nop
     264:	0000                	unimp
     266:	0000                	unimp
     268:	0462                	slli	s0,s0,0x18
     26a:	0001                	nop
     26c:	0000                	unimp
     26e:	0000                	unimp
     270:	5a01                	li	s4,-32
     272:	01046207          	0x1046207
     276:	0000                	unimp
     278:	0000                	unimp
     27a:	6500                	ld	s0,8(a0)
     27c:	0104                	addi	s1,sp,128
     27e:	0000                	unimp
     280:	0000                	unimp
     282:	0100                	addi	s0,sp,128
     284:	0465075b          	0x465075b
     288:	0001                	nop
     28a:	0000                	unimp
     28c:	0000                	unimp
     28e:	046e                	slli	s0,s0,0x1b
     290:	0001                	nop
     292:	0000                	unimp
     294:	0000                	unimp
     296:	a304                	fsd	fs1,0(a4)
     298:	5a01                	li	s4,-32
     29a:	009f 4c07 0104      	0x1044c07009f
     2a0:	0000                	unimp
     2a2:	0000                	unimp
     2a4:	5e00                	lw	s0,56(a2)
     2a6:	0104                	addi	s1,sp,128
     2a8:	0000                	unimp
     2aa:	0000                	unimp
     2ac:	0100                	addi	s0,sp,128
     2ae:	045e075b          	0x45e075b
     2b2:	0001                	nop
     2b4:	0000                	unimp
     2b6:	0000                	unimp
     2b8:	0465                	addi	s0,s0,25
     2ba:	0001                	nop
     2bc:	0000                	unimp
     2be:	0000                	unimp
     2c0:	5c01                	li	s8,-32
     2c2:	01046507          	0x1046507
     2c6:	0000                	unimp
     2c8:	0000                	unimp
     2ca:	6e00                	ld	s0,24(a2)
     2cc:	0104                	addi	s1,sp,128
     2ce:	0000                	unimp
     2d0:	0000                	unimp
     2d2:	0400                	addi	s0,sp,512
     2d4:	9f5b01a3          	sb	s5,-1565(s6) # 1a9e3 <__global_pointer$+0x87df>
     2d8:	0700                	addi	s0,sp,896
     2da:	042a                	slli	s0,s0,0xa
     2dc:	0001                	nop
     2de:	0000                	unimp
     2e0:	0000                	unimp
     2e2:	0440                	addi	s0,sp,516
     2e4:	0001                	nop
     2e6:	0000                	unimp
     2e8:	0000                	unimp
     2ea:	5a01                	li	s4,-32
     2ec:	01044007          	flq	ft0,16(s0) # ffffffffffffd010 <__global_pointer$+0xfffffffffffeae0c>
     2f0:	0000                	unimp
     2f2:	0000                	unimp
     2f4:	4c00                	lw	s0,24(s0)
     2f6:	0104                	addi	s1,sp,128
     2f8:	0000                	unimp
     2fa:	0000                	unimp
     2fc:	0400                	addi	s0,sp,512
     2fe:	9f5a01a3          	sb	s5,-1565(s4)
     302:	0700                	addi	s0,sp,896
     304:	0408                	addi	a0,sp,512
     306:	0001                	nop
     308:	0000                	unimp
     30a:	0000                	unimp
     30c:	041e                	slli	s0,s0,0x7
     30e:	0001                	nop
     310:	0000                	unimp
     312:	0000                	unimp
     314:	5a01                	li	s4,-32
     316:	01041e07          	0x1041e07
     31a:	0000                	unimp
     31c:	0000                	unimp
     31e:	2100                	fld	fs0,0(a0)
     320:	0104                	addi	s1,sp,128
     322:	0000                	unimp
     324:	0000                	unimp
     326:	0100                	addi	s0,sp,128
     328:	0421075b          	0x421075b
     32c:	0001                	nop
     32e:	0000                	unimp
     330:	0000                	unimp
     332:	042a                	slli	s0,s0,0xa
     334:	0001                	nop
     336:	0000                	unimp
     338:	0000                	unimp
     33a:	a304                	fsd	fs1,0(a4)
     33c:	5a01                	li	s4,-32
     33e:	009f e607 0103      	0x103e607009f
     344:	0000                	unimp
     346:	0000                	unimp
     348:	fc00                	sd	s0,56(s0)
     34a:	00000103          	lb	sp,0(zero) # 0 <main-0x100b0>
     34e:	0000                	unimp
     350:	0100                	addi	s0,sp,128
     352:	075a                	slli	a4,a4,0x16
     354:	03fc                	addi	a5,sp,460
     356:	0001                	nop
     358:	0000                	unimp
     35a:	0000                	unimp
     35c:	0408                	addi	a0,sp,512
     35e:	0001                	nop
     360:	0000                	unimp
     362:	0000                	unimp
     364:	a304                	fsd	fs1,0(a4)
     366:	5a01                	li	s4,-32
     368:	009f e607 0103      	0x103e607009f
     36e:	0000                	unimp
     370:	0000                	unimp
     372:	f800                	sd	s0,48(s0)
     374:	00000103          	lb	sp,0(zero) # 0 <main-0x100b0>
     378:	0000                	unimp
     37a:	0100                	addi	s0,sp,128
     37c:	03f8075b          	0x3f8075b
     380:	0001                	nop
     382:	0000                	unimp
     384:	0000                	unimp
     386:	03ff                	0x3ff
     388:	0001                	nop
     38a:	0000                	unimp
     38c:	0000                	unimp
     38e:	5c01                	li	s8,-32
     390:	0103ff07          	0x103ff07
     394:	0000                	unimp
     396:	0000                	unimp
     398:	0800                	addi	s0,sp,16
     39a:	0104                	addi	s1,sp,128
     39c:	0000                	unimp
     39e:	0000                	unimp
     3a0:	0400                	addi	s0,sp,512
     3a2:	9f5b01a3          	sb	s5,-1565(s6)
     3a6:	0700                	addi	s0,sp,896
     3a8:	03c4                	addi	s1,sp,452
     3aa:	0001                	nop
     3ac:	0000                	unimp
     3ae:	0000                	unimp
     3b0:	03da                	slli	t2,t2,0x16
     3b2:	0001                	nop
     3b4:	0000                	unimp
     3b6:	0000                	unimp
     3b8:	5a01                	li	s4,-32
     3ba:	0103da07          	0x103da07
     3be:	0000                	unimp
     3c0:	0000                	unimp
     3c2:	dd00                	sw	s0,56(a0)
     3c4:	00000103          	lb	sp,0(zero) # 0 <main-0x100b0>
     3c8:	0000                	unimp
     3ca:	0100                	addi	s0,sp,128
     3cc:	03dd075b          	0x3dd075b
     3d0:	0001                	nop
     3d2:	0000                	unimp
     3d4:	0000                	unimp
     3d6:	03e6                	slli	t2,t2,0x19
     3d8:	0001                	nop
     3da:	0000                	unimp
     3dc:	0000                	unimp
     3de:	a304                	fsd	fs1,0(a4)
     3e0:	5a01                	li	s4,-32
     3e2:	009f a207 0103      	0x103a207009f
     3e8:	0000                	unimp
     3ea:	0000                	unimp
     3ec:	b800                	fsd	fs0,48(s0)
     3ee:	00000103          	lb	sp,0(zero) # 0 <main-0x100b0>
     3f2:	0000                	unimp
     3f4:	0100                	addi	s0,sp,128
     3f6:	075a                	slli	a4,a4,0x16
     3f8:	03b8                	addi	a4,sp,456
     3fa:	0001                	nop
     3fc:	0000                	unimp
     3fe:	0000                	unimp
     400:	03c4                	addi	s1,sp,452
     402:	0001                	nop
     404:	0000                	unimp
     406:	0000                	unimp
     408:	a304                	fsd	fs1,0(a4)
     40a:	5a01                	li	s4,-32
     40c:	009f a207 0103      	0x103a207009f
     412:	0000                	unimp
     414:	0000                	unimp
     416:	b400                	fsd	fs0,40(s0)
     418:	00000103          	lb	sp,0(zero) # 0 <main-0x100b0>
     41c:	0000                	unimp
     41e:	0100                	addi	s0,sp,128
     420:	03b4075b          	0x3b4075b
     424:	0001                	nop
     426:	0000                	unimp
     428:	0000                	unimp
     42a:	000103bb          	addw	t2,sp,zero
     42e:	0000                	unimp
     430:	0000                	unimp
     432:	5c01                	li	s8,-32
     434:	0103bb07          	fld	fs6,16(t2)
     438:	0000                	unimp
     43a:	0000                	unimp
     43c:	c400                	sw	s0,8(s0)
     43e:	00000103          	lb	sp,0(zero) # 0 <main-0x100b0>
     442:	0000                	unimp
     444:	0400                	addi	s0,sp,512
     446:	9f5b01a3          	sb	s5,-1565(s6)
     44a:	0700                	addi	s0,sp,896
     44c:	0380                	addi	s0,sp,448
     44e:	0001                	nop
     450:	0000                	unimp
     452:	0000                	unimp
     454:	0396                	slli	t2,t2,0x5
     456:	0001                	nop
     458:	0000                	unimp
     45a:	0000                	unimp
     45c:	5a01                	li	s4,-32
     45e:	01039607          	0x1039607
     462:	0000                	unimp
     464:	0000                	unimp
     466:	a200                	fsd	fs0,0(a2)
     468:	00000103          	lb	sp,0(zero) # 0 <main-0x100b0>
     46c:	0000                	unimp
     46e:	0400                	addi	s0,sp,512
     470:	9f5a01a3          	sb	s5,-1565(s4)
     474:	0700                	addi	s0,sp,896
     476:	0380                	addi	s0,sp,448
     478:	0001                	nop
     47a:	0000                	unimp
     47c:	0000                	unimp
     47e:	0392                	slli	t2,t2,0x4
     480:	0001                	nop
     482:	0000                	unimp
     484:	0000                	unimp
     486:	5b01                	li	s6,-32
     488:	01039207          	0x1039207
     48c:	0000                	unimp
     48e:	0000                	unimp
     490:	9900                	0x9900
     492:	00000103          	lb	sp,0(zero) # 0 <main-0x100b0>
     496:	0000                	unimp
     498:	0100                	addi	s0,sp,128
     49a:	075c                	addi	a5,sp,900
     49c:	0399                	addi	t2,t2,6
     49e:	0001                	nop
     4a0:	0000                	unimp
     4a2:	0000                	unimp
     4a4:	03a2                	slli	t2,t2,0x8
     4a6:	0001                	nop
     4a8:	0000                	unimp
     4aa:	0000                	unimp
     4ac:	a304                	fsd	fs1,0(a4)
     4ae:	5b01                	li	s6,-32
     4b0:	009f 5e07 0103      	0x1035e07009f
     4b6:	0000                	unimp
     4b8:	0000                	unimp
     4ba:	7400                	ld	s0,40(s0)
     4bc:	00000103          	lb	sp,0(zero) # 0 <main-0x100b0>
     4c0:	0000                	unimp
     4c2:	0100                	addi	s0,sp,128
     4c4:	075a                	slli	a4,a4,0x16
     4c6:	0374                	addi	a3,sp,396
     4c8:	0001                	nop
     4ca:	0000                	unimp
     4cc:	0000                	unimp
     4ce:	0380                	addi	s0,sp,448
     4d0:	0001                	nop
     4d2:	0000                	unimp
     4d4:	0000                	unimp
     4d6:	a304                	fsd	fs1,0(a4)
     4d8:	5a01                	li	s4,-32
     4da:	009f 5e07 0103      	0x1035e07009f
     4e0:	0000                	unimp
     4e2:	0000                	unimp
     4e4:	7000                	ld	s0,32(s0)
     4e6:	00000103          	lb	sp,0(zero) # 0 <main-0x100b0>
     4ea:	0000                	unimp
     4ec:	0100                	addi	s0,sp,128
     4ee:	0370075b          	0x370075b
     4f2:	0001                	nop
     4f4:	0000                	unimp
     4f6:	0000                	unimp
     4f8:	0380                	addi	s0,sp,448
     4fa:	0001                	nop
     4fc:	0000                	unimp
     4fe:	0000                	unimp
     500:	a304                	fsd	fs1,0(a4)
     502:	5b01                	li	s6,-32
     504:	009f 5e07 0103      	0x1035e07009f
     50a:	0000                	unimp
     50c:	0000                	unimp
     50e:	6e00                	ld	s0,24(a2)
     510:	00000103          	lb	sp,0(zero) # 0 <main-0x100b0>
     514:	0000                	unimp
     516:	0100                	addi	s0,sp,128
     518:	075c                	addi	a5,sp,900
     51a:	036e                	slli	t1,t1,0x1b
     51c:	0001                	nop
     51e:	0000                	unimp
     520:	0000                	unimp
     522:	0380                	addi	s0,sp,448
     524:	0001                	nop
     526:	0000                	unimp
     528:	0000                	unimp
     52a:	a304                	fsd	fs1,0(a4)
     52c:	5c01                	li	s8,-32
     52e:	009f 3c07 0103      	0x1033c07009f
     534:	0000                	unimp
     536:	0000                	unimp
     538:	5200                	lw	s0,32(a2)
     53a:	00000103          	lb	sp,0(zero) # 0 <main-0x100b0>
     53e:	0000                	unimp
     540:	0100                	addi	s0,sp,128
     542:	075a                	slli	a4,a4,0x16
     544:	0352                	slli	t1,t1,0x14
     546:	0001                	nop
     548:	0000                	unimp
     54a:	0000                	unimp
     54c:	035e                	slli	t1,t1,0x17
     54e:	0001                	nop
     550:	0000                	unimp
     552:	0000                	unimp
     554:	a304                	fsd	fs1,0(a4)
     556:	5a01                	li	s4,-32
     558:	009f 3c07 0103      	0x1033c07009f
     55e:	0000                	unimp
     560:	0000                	unimp
     562:	4e00                	lw	s0,24(a2)
     564:	00000103          	lb	sp,0(zero) # 0 <main-0x100b0>
     568:	0000                	unimp
     56a:	0100                	addi	s0,sp,128
     56c:	034e075b          	0x34e075b
     570:	0001                	nop
     572:	0000                	unimp
     574:	0000                	unimp
     576:	0355                	addi	t1,t1,21
     578:	0001                	nop
     57a:	0000                	unimp
     57c:	0000                	unimp
     57e:	5c01                	li	s8,-32
     580:	01035507          	0x1035507
     584:	0000                	unimp
     586:	0000                	unimp
     588:	5e00                	lw	s0,56(a2)
     58a:	00000103          	lb	sp,0(zero) # 0 <main-0x100b0>
     58e:	0000                	unimp
     590:	0400                	addi	s0,sp,512
     592:	9f5b01a3          	sb	s5,-1565(s6)
     596:	0700                	addi	s0,sp,896
     598:	033c                	addi	a5,sp,392
     59a:	0001                	nop
     59c:	0000                	unimp
     59e:	0000                	unimp
     5a0:	034c                	addi	a1,sp,388
     5a2:	0001                	nop
     5a4:	0000                	unimp
     5a6:	0000                	unimp
     5a8:	5c01                	li	s8,-32
     5aa:	01034c07          	flq	fs8,16(t1) # ffffffffffffa010 <__global_pointer$+0xfffffffffffe7e0c>
     5ae:	0000                	unimp
     5b0:	0000                	unimp
     5b2:	5500                	lw	s0,40(a0)
     5b4:	00000103          	lb	sp,0(zero) # 0 <main-0x100b0>
     5b8:	0000                	unimp
     5ba:	0100                	addi	s0,sp,128
     5bc:	075d                	addi	a4,a4,23
     5be:	0355                	addi	t1,t1,21
     5c0:	0001                	nop
     5c2:	0000                	unimp
     5c4:	0000                	unimp
     5c6:	035e                	slli	t1,t1,0x17
     5c8:	0001                	nop
     5ca:	0000                	unimp
     5cc:	0000                	unimp
     5ce:	a304                	fsd	fs1,0(a4)
     5d0:	5c01                	li	s8,-32
     5d2:	009f 1a07 0103      	0x1031a07009f
     5d8:	0000                	unimp
     5da:	0000                	unimp
     5dc:	3000                	fld	fs0,32(s0)
     5de:	00000103          	lb	sp,0(zero) # 0 <main-0x100b0>
     5e2:	0000                	unimp
     5e4:	0100                	addi	s0,sp,128
     5e6:	075a                	slli	a4,a4,0x16
     5e8:	0330                	addi	a2,sp,392
     5ea:	0001                	nop
     5ec:	0000                	unimp
     5ee:	0000                	unimp
     5f0:	033c                	addi	a5,sp,392
     5f2:	0001                	nop
     5f4:	0000                	unimp
     5f6:	0000                	unimp
     5f8:	a304                	fsd	fs1,0(a4)
     5fa:	5a01                	li	s4,-32
     5fc:	009f 1a07 0103      	0x1031a07009f
     602:	0000                	unimp
     604:	0000                	unimp
     606:	2c00                	fld	fs0,24(s0)
     608:	00000103          	lb	sp,0(zero) # 0 <main-0x100b0>
     60c:	0000                	unimp
     60e:	0100                	addi	s0,sp,128
     610:	032c075b          	0x32c075b
     614:	0001                	nop
     616:	0000                	unimp
     618:	0000                	unimp
     61a:	00010333          	add	t1,sp,zero
     61e:	0000                	unimp
     620:	0000                	unimp
     622:	5c01                	li	s8,-32
     624:	01033307          	fld	ft6,16(t1)
     628:	0000                	unimp
     62a:	0000                	unimp
     62c:	3c00                	fld	fs0,56(s0)
     62e:	00000103          	lb	sp,0(zero) # 0 <main-0x100b0>
     632:	0000                	unimp
     634:	0400                	addi	s0,sp,512
     636:	9f5b01a3          	sb	s5,-1565(s6)
     63a:	0700                	addi	s0,sp,896
     63c:	031a                	slli	t1,t1,0x6
     63e:	0001                	nop
     640:	0000                	unimp
     642:	0000                	unimp
     644:	032a                	slli	t1,t1,0xa
     646:	0001                	nop
     648:	0000                	unimp
     64a:	0000                	unimp
     64c:	5c01                	li	s8,-32
     64e:	01032a07          	flw	fs4,16(t1)
     652:	0000                	unimp
     654:	0000                	unimp
     656:	3300                	fld	fs0,32(a4)
     658:	00000103          	lb	sp,0(zero) # 0 <main-0x100b0>
     65c:	0000                	unimp
     65e:	0100                	addi	s0,sp,128
     660:	075d                	addi	a4,a4,23
     662:	00010333          	add	t1,sp,zero
     666:	0000                	unimp
     668:	0000                	unimp
     66a:	033c                	addi	a5,sp,392
     66c:	0001                	nop
     66e:	0000                	unimp
     670:	0000                	unimp
     672:	a304                	fsd	fs1,0(a4)
     674:	5c01                	li	s8,-32
     676:	009f f807 0102      	0x102f807009f
     67c:	0000                	unimp
     67e:	0000                	unimp
     680:	0e00                	addi	s0,sp,784
     682:	00000103          	lb	sp,0(zero) # 0 <main-0x100b0>
     686:	0000                	unimp
     688:	0100                	addi	s0,sp,128
     68a:	075a                	slli	a4,a4,0x16
     68c:	030e                	slli	t1,t1,0x3
     68e:	0001                	nop
     690:	0000                	unimp
     692:	0000                	unimp
     694:	0311                	addi	t1,t1,4
     696:	0001                	nop
     698:	0000                	unimp
     69a:	0000                	unimp
     69c:	5b01                	li	s6,-32
     69e:	01031107          	0x1031107
     6a2:	0000                	unimp
     6a4:	0000                	unimp
     6a6:	1a00                	addi	s0,sp,304
     6a8:	00000103          	lb	sp,0(zero) # 0 <main-0x100b0>
     6ac:	0000                	unimp
     6ae:	0400                	addi	s0,sp,512
     6b0:	9f5a01a3          	sb	s5,-1565(s4)
     6b4:	0700                	addi	s0,sp,896
     6b6:	02f8                	addi	a4,sp,332
     6b8:	0001                	nop
     6ba:	0000                	unimp
     6bc:	0000                	unimp
     6be:	030a                	slli	t1,t1,0x2
     6c0:	0001                	nop
     6c2:	0000                	unimp
     6c4:	0000                	unimp
     6c6:	5b01                	li	s6,-32
     6c8:	01030a07          	0x1030a07
     6cc:	0000                	unimp
     6ce:	0000                	unimp
     6d0:	1a00                	addi	s0,sp,304
     6d2:	00000103          	lb	sp,0(zero) # 0 <main-0x100b0>
     6d6:	0000                	unimp
     6d8:	0400                	addi	s0,sp,512
     6da:	9f5b01a3          	sb	s5,-1565(s6)
     6de:	0700                	addi	s0,sp,896
     6e0:	02d6                	slli	t0,t0,0x15
     6e2:	0001                	nop
     6e4:	0000                	unimp
     6e6:	0000                	unimp
     6e8:	02ec                	addi	a1,sp,332
     6ea:	0001                	nop
     6ec:	0000                	unimp
     6ee:	0000                	unimp
     6f0:	5a01                	li	s4,-32
     6f2:	0102ec07          	0x102ec07
     6f6:	0000                	unimp
     6f8:	0000                	unimp
     6fa:	ef00                	sd	s0,24(a4)
     6fc:	0102                	c.slli64	sp
     6fe:	0000                	unimp
     700:	0000                	unimp
     702:	0100                	addi	s0,sp,128
     704:	02ef075b          	0x2ef075b
     708:	0001                	nop
     70a:	0000                	unimp
     70c:	0000                	unimp
     70e:	02f8                	addi	a4,sp,332
     710:	0001                	nop
     712:	0000                	unimp
     714:	0000                	unimp
     716:	a304                	fsd	fs1,0(a4)
     718:	5a01                	li	s4,-32
     71a:	009f d607 0102      	0x102d607009f
     720:	0000                	unimp
     722:	0000                	unimp
     724:	e800                	sd	s0,16(s0)
     726:	0102                	c.slli64	sp
     728:	0000                	unimp
     72a:	0000                	unimp
     72c:	0100                	addi	s0,sp,128
     72e:	02e8075b          	0x2e8075b
     732:	0001                	nop
     734:	0000                	unimp
     736:	0000                	unimp
     738:	000102ef          	jal	t0,10738 <strlen+0x6>
     73c:	0000                	unimp
     73e:	0000                	unimp
     740:	5c01                	li	s8,-32
     742:	0102ef07          	0x102ef07
     746:	0000                	unimp
     748:	0000                	unimp
     74a:	f800                	sd	s0,48(s0)
     74c:	0102                	c.slli64	sp
     74e:	0000                	unimp
     750:	0000                	unimp
     752:	0400                	addi	s0,sp,512
     754:	9f5b01a3          	sb	s5,-1565(s6)
     758:	0700                	addi	s0,sp,896
     75a:	0274                	addi	a3,sp,268
     75c:	0001                	nop
     75e:	0000                	unimp
     760:	0000                	unimp
     762:	028a                	slli	t0,t0,0x2
     764:	0001                	nop
     766:	0000                	unimp
     768:	0000                	unimp
     76a:	5a01                	li	s4,-32
     76c:	01028a07          	0x1028a07
     770:	0000                	unimp
     772:	0000                	unimp
     774:	8d00                	0x8d00
     776:	0102                	c.slli64	sp
     778:	0000                	unimp
     77a:	0000                	unimp
     77c:	0100                	addi	s0,sp,128
     77e:	028d075b          	0x28d075b
     782:	0001                	nop
     784:	0000                	unimp
     786:	0000                	unimp
     788:	0294                	addi	a3,sp,320
     78a:	0001                	nop
     78c:	0000                	unimp
     78e:	0000                	unimp
     790:	a304                	fsd	fs1,0(a4)
     792:	5a01                	li	s4,-32
     794:	009f 3207 0102      	0x1023207009f
     79a:	0000                	unimp
     79c:	0000                	unimp
     79e:	4800                	lw	s0,16(s0)
     7a0:	0102                	c.slli64	sp
     7a2:	0000                	unimp
     7a4:	0000                	unimp
     7a6:	0100                	addi	s0,sp,128
     7a8:	075a                	slli	a4,a4,0x16
     7aa:	0248                	addi	a0,sp,260
     7ac:	0001                	nop
     7ae:	0000                	unimp
     7b0:	0000                	unimp
     7b2:	0254                	addi	a3,sp,260
     7b4:	0001                	nop
     7b6:	0000                	unimp
     7b8:	0000                	unimp
     7ba:	a304                	fsd	fs1,0(a4)
     7bc:	5a01                	li	s4,-32
     7be:	009f e007 0101      	0x101e007009f
     7c4:	0000                	unimp
     7c6:	0000                	unimp
     7c8:	fe00                	sd	s0,56(a2)
     7ca:	0101                	addi	sp,sp,0
     7cc:	0000                	unimp
     7ce:	0000                	unimp
     7d0:	0100                	addi	s0,sp,128
     7d2:	075a                	slli	a4,a4,0x16
     7d4:	01fe                	slli	gp,gp,0x1f
     7d6:	0001                	nop
     7d8:	0000                	unimp
     7da:	0000                	unimp
     7dc:	0201                	addi	tp,tp,0
     7de:	0001                	nop
     7e0:	0000                	unimp
     7e2:	0000                	unimp
     7e4:	5c01                	li	s8,-32
     7e6:	01020107          	0x1020107
     7ea:	0000                	unimp
     7ec:	0000                	unimp
     7ee:	3200                	fld	fs0,32(a2)
     7f0:	0102                	c.slli64	sp
     7f2:	0000                	unimp
     7f4:	0000                	unimp
     7f6:	0400                	addi	s0,sp,512
     7f8:	9f5a01a3          	sb	s5,-1565(s4)
     7fc:	0700                	addi	s0,sp,896
     7fe:	0202                	c.slli64	tp
     800:	0001                	nop
     802:	0000                	unimp
     804:	0000                	unimp
     806:	0220                	addi	s0,sp,264
     808:	0001                	nop
     80a:	0000                	unimp
     80c:	0000                	unimp
     80e:	5a01                	li	s4,-32
     810:	01022c07          	flw	fs8,16(tp) # ffffffffffff8010 <__global_pointer$+0xfffffffffffe5e0c>
     814:	0000                	unimp
     816:	0000                	unimp
     818:	3200                	fld	fs0,32(a2)
     81a:	0102                	c.slli64	sp
     81c:	0000                	unimp
     81e:	0000                	unimp
     820:	0100                	addi	s0,sp,128
     822:	005a                	c.slli	zero,0x16
     824:	01020207          	0x1020207
     828:	0000                	unimp
     82a:	0000                	unimp
     82c:	1c00                	addi	s0,sp,560
     82e:	0102                	c.slli64	sp
     830:	0000                	unimp
     832:	0000                	unimp
     834:	0400                	addi	s0,sp,512
     836:	a891                	j	88a <main-0xf826>
     838:	9f7d                	0x9f7d
     83a:	01021c07          	0x1021c07
     83e:	0000                	unimp
     840:	0000                	unimp
     842:	2300                	fld	fs0,0(a4)
     844:	0102                	c.slli64	sp
     846:	0000                	unimp
     848:	0000                	unimp
     84a:	0100                	addi	s0,sp,128
     84c:	0223075b          	0x223075b
     850:	0001                	nop
     852:	0000                	unimp
     854:	0000                	unimp
     856:	022a                	slli	tp,tp,0xa
     858:	0001                	nop
     85a:	0000                	unimp
     85c:	0000                	unimp
     85e:	9104                	0x9104
     860:	7da8                	ld	a0,120(a1)
     862:	079f 022a 0001      	0x1022a079f
     868:	0000                	unimp
     86a:	0000                	unimp
     86c:	022c                	addi	a1,sp,264
     86e:	0001                	nop
     870:	0000                	unimp
     872:	0000                	unimp
     874:	7204                	ld	s1,32(a2)
     876:	7da8                	ld	a0,120(a1)
     878:	079f 022c 0001      	0x1022c079f
     87e:	0000                	unimp
     880:	0000                	unimp
     882:	0232                	slli	tp,tp,0xc
     884:	0001                	nop
     886:	0000                	unimp
     888:	0000                	unimp
     88a:	9104                	0x9104
     88c:	7da8                	ld	a0,120(a1)
     88e:	009f 1007 0102      	0x1021007009f
     894:	0000                	unimp
     896:	0000                	unimp
     898:	2300                	fld	fs0,0(a4)
     89a:	0102                	c.slli64	sp
     89c:	0000                	unimp
     89e:	0000                	unimp
     8a0:	0100                	addi	s0,sp,128
     8a2:	005c                	addi	a5,sp,4
     8a4:	0101d207          	0x101d207
     8a8:	0000                	unimp
     8aa:	0000                	unimp
     8ac:	dc00                	sw	s0,56(s0)
     8ae:	0101                	addi	sp,sp,0
     8b0:	0000                	unimp
     8b2:	0000                	unimp
     8b4:	0100                	addi	s0,sp,128
     8b6:	075a                	slli	a4,a4,0x16
     8b8:	01dc                	addi	a5,sp,196
     8ba:	0001                	nop
     8bc:	0000                	unimp
     8be:	0000                	unimp
     8c0:	01e0                	addi	s0,sp,204
     8c2:	0001                	nop
     8c4:	0000                	unimp
     8c6:	0000                	unimp
     8c8:	a304                	fsd	fs1,0(a4)
     8ca:	5a01                	li	s4,-32
     8cc:	009f 05e1 0000      	0x5e1009f
     8d2:	0005                	c.nop	1
     8d4:	0008                	0x8
     8d6:	0000                	unimp
     8d8:	0000                	unimp
     8da:	0104d407          	0x104d407
     8de:	0000                	unimp
     8e0:	0000                	unimp
     8e2:	9e00                	0x9e00
     8e4:	0106                	slli	sp,sp,0x1
     8e6:	0000                	unimp
     8e8:	0000                	unimp
     8ea:	0100                	addi	s0,sp,128
     8ec:	075a                	slli	a4,a4,0x16
     8ee:	069e                	slli	a3,a3,0x7
     8f0:	0001                	nop
     8f2:	0000                	unimp
     8f4:	0000                	unimp
     8f6:	06aa                	slli	a3,a3,0xa
     8f8:	0001                	nop
     8fa:	0000                	unimp
     8fc:	0000                	unimp
     8fe:	a304                	fsd	fs1,0(a4)
     900:	5a01                	li	s4,-32
     902:	079f 06aa 0001      	0x106aa079f
     908:	0000                	unimp
     90a:	0000                	unimp
     90c:	06b0                	addi	a2,sp,840
     90e:	0001                	nop
     910:	0000                	unimp
     912:	0000                	unimp
     914:	5a01                	li	s4,-32
     916:	0106b007          	fld	ft0,16(a3)
     91a:	0000                	unimp
     91c:	0000                	unimp
     91e:	b600                	fsd	fs0,40(a2)
     920:	0106                	slli	sp,sp,0x1
     922:	0000                	unimp
     924:	0000                	unimp
     926:	0400                	addi	s0,sp,512
     928:	9f5a01a3          	sb	s5,-1565(s4)
     92c:	0700                	addi	s0,sp,896
     92e:	04d4                	addi	a3,sp,580
     930:	0001                	nop
     932:	0000                	unimp
     934:	0000                	unimp
     936:	06a2                	slli	a3,a3,0x8
     938:	0001                	nop
     93a:	0000                	unimp
     93c:	0000                	unimp
     93e:	5b01                	li	s6,-32
     940:	0106a207          	flw	ft4,16(a3)
     944:	0000                	unimp
     946:	0000                	unimp
     948:	aa00                	fsd	fs0,16(a2)
     94a:	0106                	slli	sp,sp,0x1
     94c:	0000                	unimp
     94e:	0000                	unimp
     950:	0400                	addi	s0,sp,512
     952:	9f5b01a3          	sb	s5,-1565(s6)
     956:	0106aa07          	flw	fs4,16(a3)
     95a:	0000                	unimp
     95c:	0000                	unimp
     95e:	ae00                	fsd	fs0,24(a2)
     960:	0106                	slli	sp,sp,0x1
     962:	0000                	unimp
     964:	0000                	unimp
     966:	0100                	addi	s0,sp,128
     968:	06ae075b          	0x6ae075b
     96c:	0001                	nop
     96e:	0000                	unimp
     970:	0000                	unimp
     972:	06b6                	slli	a3,a3,0xd
     974:	0001                	nop
     976:	0000                	unimp
     978:	0000                	unimp
     97a:	9f017b03          	0x9f017b03
     97e:	0700                	addi	s0,sp,896
     980:	04d4                	addi	a3,sp,580
     982:	0001                	nop
     984:	0000                	unimp
     986:	0000                	unimp
     988:	066a                	slli	a2,a2,0x1a
     98a:	0001                	nop
     98c:	0000                	unimp
     98e:	0000                	unimp
     990:	5c01                	li	s8,-32
     992:	01066a07          	0x1066a07
     996:	0000                	unimp
     998:	0000                	unimp
     99a:	b600                	fsd	fs0,40(a2)
     99c:	0106                	slli	sp,sp,0x1
     99e:	0000                	unimp
     9a0:	0000                	unimp
     9a2:	0100                	addi	s0,sp,128
     9a4:	005c                	addi	a5,sp,4
     9a6:	0104d407          	0x104d407
     9aa:	0000                	unimp
     9ac:	0000                	unimp
     9ae:	de00                	sw	s0,56(a2)
     9b0:	0104                	addi	s1,sp,128
     9b2:	0000                	unimp
     9b4:	0000                	unimp
     9b6:	0100                	addi	s0,sp,128
     9b8:	075d                	addi	a4,a4,23
     9ba:	04de                	slli	s1,s1,0x17
     9bc:	0001                	nop
     9be:	0000                	unimp
     9c0:	0000                	unimp
     9c2:	04e0                	addi	s0,sp,588
     9c4:	0001                	nop
     9c6:	0000                	unimp
     9c8:	0000                	unimp
     9ca:	9102                	jalr	sp
     9cc:	0778                	addi	a4,sp,908
     9ce:	04e0                	addi	s0,sp,588
     9d0:	0001                	nop
     9d2:	0000                	unimp
     9d4:	0000                	unimp
     9d6:	06b6                	slli	a3,a3,0xd
     9d8:	0001                	nop
     9da:	0000                	unimp
     9dc:	0000                	unimp
     9de:	a304                	fsd	fs1,0(a4)
     9e0:	5d01                	li	s10,-32
     9e2:	009f d807 0104      	0x104d807009f
     9e8:	0000                	unimp
     9ea:	0000                	unimp
     9ec:	e000                	sd	s0,0(s0)
     9ee:	0104                	addi	s1,sp,128
     9f0:	0000                	unimp
     9f2:	0000                	unimp
     9f4:	0200                	addi	s0,sp,256
     9f6:	9f30                	0x9f30
     9f8:	0104e007          	0x104e007
     9fc:	0000                	unimp
     9fe:	0000                	unimp
     a00:	0400                	addi	s0,sp,512
     a02:	0105                	addi	sp,sp,1
     a04:	0000                	unimp
     a06:	0000                	unimp
     a08:	0100                	addi	s0,sp,128
     a0a:	075d                	addi	a4,a4,23
     a0c:	0516                	slli	a0,a0,0x5
     a0e:	0001                	nop
     a10:	0000                	unimp
     a12:	0000                	unimp
     a14:	051c                	addi	a5,sp,640
     a16:	0001                	nop
     a18:	0000                	unimp
     a1a:	0000                	unimp
     a1c:	5d01                	li	s10,-32
     a1e:	01051e07          	0x1051e07
     a22:	0000                	unimp
     a24:	0000                	unimp
     a26:	2400                	fld	fs0,8(s0)
     a28:	0105                	addi	sp,sp,1
     a2a:	0000                	unimp
     a2c:	0000                	unimp
     a2e:	0100                	addi	s0,sp,128
     a30:	075d                	addi	a4,a4,23
     a32:	0568                	addi	a0,sp,652
     a34:	0001                	nop
     a36:	0000                	unimp
     a38:	0000                	unimp
     a3a:	0572                	slli	a0,a0,0x1c
     a3c:	0001                	nop
     a3e:	0000                	unimp
     a40:	0000                	unimp
     a42:	5d01                	li	s10,-32
     a44:	01058207          	0x1058207
     a48:	0000                	unimp
     a4a:	0000                	unimp
     a4c:	8800                	0x8800
     a4e:	0105                	addi	sp,sp,1
     a50:	0000                	unimp
     a52:	0000                	unimp
     a54:	0100                	addi	s0,sp,128
     a56:	075d                	addi	a4,a4,23
     a58:	05ea                	slli	a1,a1,0x1a
     a5a:	0001                	nop
     a5c:	0000                	unimp
     a5e:	0000                	unimp
     a60:	05f0                	addi	a2,sp,716
     a62:	0001                	nop
     a64:	0000                	unimp
     a66:	0000                	unimp
     a68:	3002                	fld	ft0,32(sp)
     a6a:	079f 05f0 0001      	0x105f0079f
     a70:	0000                	unimp
     a72:	0000                	unimp
     a74:	05f6                	slli	a1,a1,0x1d
     a76:	0001                	nop
     a78:	0000                	unimp
     a7a:	0000                	unimp
     a7c:	5d01                	li	s10,-32
     a7e:	01061e07          	0x1061e07
     a82:	0000                	unimp
     a84:	0000                	unimp
     a86:	2800                	fld	fs0,16(s0)
     a88:	0106                	slli	sp,sp,0x1
     a8a:	0000                	unimp
     a8c:	0000                	unimp
     a8e:	0100                	addi	s0,sp,128
     a90:	075d                	addi	a4,a4,23
     a92:	0640                	addi	s0,sp,772
     a94:	0001                	nop
     a96:	0000                	unimp
     a98:	0000                	unimp
     a9a:	0664                	addi	s1,sp,780
     a9c:	0001                	nop
     a9e:	0000                	unimp
     aa0:	0000                	unimp
     aa2:	5d01                	li	s10,-32
     aa4:	01066607          	0x1066607
     aa8:	0000                	unimp
     aaa:	0000                	unimp
     aac:	b600                	fsd	fs0,40(a2)
     aae:	0106                	slli	sp,sp,0x1
     ab0:	0000                	unimp
     ab2:	0000                	unimp
     ab4:	0100                	addi	s0,sp,128
     ab6:	005d                	c.nop	23
     ab8:	0104d807          	0x104d807
     abc:	0000                	unimp
     abe:	0000                	unimp
     ac0:	e000                	sd	s0,0(s0)
     ac2:	0104                	addi	s1,sp,128
     ac4:	0000                	unimp
     ac6:	0000                	unimp
     ac8:	0200                	addi	s0,sp,256
     aca:	9f30                	0x9f30
     acc:	0104e007          	0x104e007
     ad0:	0000                	unimp
     ad2:	0000                	unimp
     ad4:	0400                	addi	s0,sp,512
     ad6:	0105                	addi	sp,sp,1
     ad8:	0000                	unimp
     ada:	0000                	unimp
     adc:	0200                	addi	s0,sp,256
     ade:	9f31                	addw	a4,a4,a2
     ae0:	01051607          	0x1051607
     ae4:	0000                	unimp
     ae6:	0000                	unimp
     ae8:	2e00                	fld	fs0,24(a2)
     aea:	0105                	addi	sp,sp,1
     aec:	0000                	unimp
     aee:	0000                	unimp
     af0:	0100                	addi	s0,sp,128
     af2:	0756                	slli	a4,a4,0x15
     af4:	0568                	addi	a0,sp,652
     af6:	0001                	nop
     af8:	0000                	unimp
     afa:	0000                	unimp
     afc:	0580                	addi	s0,sp,704
     afe:	0001                	nop
     b00:	0000                	unimp
     b02:	0000                	unimp
     b04:	5601                	li	a2,-32
     b06:	01058207          	0x1058207
     b0a:	0000                	unimp
     b0c:	0000                	unimp
     b0e:	ae00                	fsd	fs0,24(a2)
     b10:	0105                	addi	sp,sp,1
     b12:	0000                	unimp
     b14:	0000                	unimp
     b16:	0100                	addi	s0,sp,128
     b18:	0756                	slli	a4,a4,0x15
     b1a:	05ea                	slli	a1,a1,0x1a
     b1c:	0001                	nop
     b1e:	0000                	unimp
     b20:	0000                	unimp
     b22:	05f0                	addi	a2,sp,716
     b24:	0001                	nop
     b26:	0000                	unimp
     b28:	0000                	unimp
     b2a:	3002                	fld	ft0,32(sp)
     b2c:	079f 05f0 0001      	0x105f0079f
     b32:	0000                	unimp
     b34:	0000                	unimp
     b36:	061a                	slli	a2,a2,0x6
     b38:	0001                	nop
     b3a:	0000                	unimp
     b3c:	0000                	unimp
     b3e:	5601                	li	a2,-32
     b40:	01061e07          	0x1061e07
     b44:	0000                	unimp
     b46:	0000                	unimp
     b48:	3c00                	fld	fs0,56(s0)
     b4a:	0106                	slli	sp,sp,0x1
     b4c:	0000                	unimp
     b4e:	0000                	unimp
     b50:	0100                	addi	s0,sp,128
     b52:	0756                	slli	a4,a4,0x15
     b54:	0640                	addi	s0,sp,772
     b56:	0001                	nop
     b58:	0000                	unimp
     b5a:	0000                	unimp
     b5c:	065c                	addi	a5,sp,772
     b5e:	0001                	nop
     b60:	0000                	unimp
     b62:	0000                	unimp
     b64:	5601                	li	a2,-32
     b66:	01065e07          	0x1065e07
     b6a:	0000                	unimp
     b6c:	0000                	unimp
     b6e:	6200                	ld	s0,0(a2)
     b70:	0106                	slli	sp,sp,0x1
     b72:	0000                	unimp
     b74:	0000                	unimp
     b76:	0100                	addi	s0,sp,128
     b78:	0756                	slli	a4,a4,0x15
     b7a:	0666                	slli	a2,a2,0x19
     b7c:	0001                	nop
     b7e:	0000                	unimp
     b80:	0000                	unimp
     b82:	06b6                	slli	a3,a3,0xd
     b84:	0001                	nop
     b86:	0000                	unimp
     b88:	0000                	unimp
     b8a:	5601                	li	a2,-32
     b8c:	0700                	addi	s0,sp,896
     b8e:	04d8                	addi	a4,sp,580
     b90:	0001                	nop
     b92:	0000                	unimp
     b94:	0000                	unimp
     b96:	04e0                	addi	s0,sp,588
     b98:	0001                	nop
     b9a:	0000                	unimp
     b9c:	0000                	unimp
     b9e:	3002                	fld	ft0,32(sp)
     ba0:	079f 04e0 0001      	0x104e0079f
     ba6:	0000                	unimp
     ba8:	0000                	unimp
     baa:	04e4                	addi	s1,sp,588
     bac:	0001                	nop
     bae:	0000                	unimp
     bb0:	0000                	unimp
     bb2:	5f01                	li	t5,-32
     bb4:	0104e407          	0x104e407
     bb8:	0000                	unimp
     bba:	0000                	unimp
     bbc:	f600                	sd	s0,40(a2)
     bbe:	0104                	addi	s1,sp,128
     bc0:	0000                	unimp
     bc2:	0000                	unimp
     bc4:	0100                	addi	s0,sp,128
     bc6:	075e                	slli	a4,a4,0x17
     bc8:	04f6                	slli	s1,s1,0x1d
     bca:	0001                	nop
     bcc:	0000                	unimp
     bce:	0000                	unimp
     bd0:	0504                	addi	s1,sp,640
     bd2:	0001                	nop
     bd4:	0000                	unimp
     bd6:	0000                	unimp
     bd8:	5f01                	li	t5,-32
     bda:	01051607          	0x1051607
     bde:	0000                	unimp
     be0:	0000                	unimp
     be2:	2e00                	fld	fs0,24(a2)
     be4:	0105                	addi	sp,sp,1
     be6:	0000                	unimp
     be8:	0000                	unimp
     bea:	0100                	addi	s0,sp,128
     bec:	075f 052e 0001      	0x1052e075f
     bf2:	0000                	unimp
     bf4:	0000                	unimp
     bf6:	053c                	addi	a5,sp,648
     bf8:	0001                	nop
     bfa:	0000                	unimp
     bfc:	0000                	unimp
     bfe:	6001                	0x6001
     c00:	01053c07          	fld	fs8,16(a0) # fffffffffffeb010 <__global_pointer$+0xfffffffffffd8e0c>
     c04:	0000                	unimp
     c06:	0000                	unimp
     c08:	4e00                	lw	s0,24(a2)
     c0a:	0105                	addi	sp,sp,1
     c0c:	0000                	unimp
     c0e:	0000                	unimp
     c10:	0100                	addi	s0,sp,128
     c12:	075f 054e 0001      	0x1054e075f
     c18:	0000                	unimp
     c1a:	0000                	unimp
     c1c:	055e                	slli	a0,a0,0x17
     c1e:	0001                	nop
     c20:	0000                	unimp
     c22:	0000                	unimp
     c24:	6001                	0x6001
     c26:	01056207          	0x1056207
     c2a:	0000                	unimp
     c2c:	0000                	unimp
     c2e:	9800                	0x9800
     c30:	0105                	addi	sp,sp,1
     c32:	0000                	unimp
     c34:	0000                	unimp
     c36:	0100                	addi	s0,sp,128
     c38:	075f 0598 0001      	0x10598075f
     c3e:	0000                	unimp
     c40:	0000                	unimp
     c42:	05ae                	slli	a1,a1,0xb
     c44:	0001                	nop
     c46:	0000                	unimp
     c48:	0000                	unimp
     c4a:	5e01                	li	t3,-32
     c4c:	0105ae07          	flw	ft8,16(a1)
     c50:	0000                	unimp
     c52:	0000                	unimp
     c54:	fc00                	sd	s0,56(s0)
     c56:	0105                	addi	sp,sp,1
     c58:	0000                	unimp
     c5a:	0000                	unimp
     c5c:	0100                	addi	s0,sp,128
     c5e:	075f 05fc 0001      	0x105fc075f
     c64:	0000                	unimp
     c66:	0000                	unimp
     c68:	0600                	addi	s0,sp,768
     c6a:	0001                	nop
     c6c:	0000                	unimp
     c6e:	0000                	unimp
     c70:	5d01                	li	s10,-32
     c72:	01060007          	0x1060007
     c76:	0000                	unimp
     c78:	0000                	unimp
     c7a:	0c00                	addi	s0,sp,528
     c7c:	0106                	slli	sp,sp,0x1
     c7e:	0000                	unimp
     c80:	0000                	unimp
     c82:	0100                	addi	s0,sp,128
     c84:	075f 060c 0001      	0x1060c075f
     c8a:	0000                	unimp
     c8c:	0000                	unimp
     c8e:	0618                	addi	a4,sp,768
     c90:	0001                	nop
     c92:	0000                	unimp
     c94:	0000                	unimp
     c96:	5d01                	li	s10,-32
     c98:	01061807          	0x1061807
     c9c:	0000                	unimp
     c9e:	0000                	unimp
     ca0:	2200                	fld	fs0,0(a2)
     ca2:	0106                	slli	sp,sp,0x1
     ca4:	0000                	unimp
     ca6:	0000                	unimp
     ca8:	0100                	addi	s0,sp,128
     caa:	075f 0622 0001      	0x10622075f
     cb0:	0000                	unimp
     cb2:	0000                	unimp
     cb4:	0640                	addi	s0,sp,772
     cb6:	0001                	nop
     cb8:	0000                	unimp
     cba:	0000                	unimp
     cbc:	5e01                	li	t3,-32
     cbe:	01064007          	flq	ft0,16(a2) # ffffffffffffa010 <__global_pointer$+0xfffffffffffe7e0c>
     cc2:	0000                	unimp
     cc4:	0000                	unimp
     cc6:	4c00                	lw	s0,24(s0)
     cc8:	0106                	slli	sp,sp,0x1
     cca:	0000                	unimp
     ccc:	0000                	unimp
     cce:	0100                	addi	s0,sp,128
     cd0:	075f 064c 0001      	0x1064c075f
     cd6:	0000                	unimp
     cd8:	0000                	unimp
     cda:	065a                	slli	a2,a2,0x16
     cdc:	0001                	nop
     cde:	0000                	unimp
     ce0:	0000                	unimp
     ce2:	6001                	0x6001
     ce4:	01065a07          	0x1065a07
     ce8:	0000                	unimp
     cea:	0000                	unimp
     cec:	5e00                	lw	s0,56(a2)
     cee:	0106                	slli	sp,sp,0x1
     cf0:	0000                	unimp
     cf2:	0000                	unimp
     cf4:	0100                	addi	s0,sp,128
     cf6:	075f 065e 0001      	0x1065e075f
     cfc:	0000                	unimp
     cfe:	0000                	unimp
     d00:	0666                	slli	a2,a2,0x19
     d02:	0001                	nop
     d04:	0000                	unimp
     d06:	0000                	unimp
     d08:	5e01                	li	t3,-32
     d0a:	01066607          	0x1066607
     d0e:	0000                	unimp
     d10:	0000                	unimp
     d12:	9400                	0x9400
     d14:	0106                	slli	sp,sp,0x1
     d16:	0000                	unimp
     d18:	0000                	unimp
     d1a:	0100                	addi	s0,sp,128
     d1c:	075f 0694 0001      	0x10694075f
     d22:	0000                	unimp
     d24:	0000                	unimp
     d26:	0698                	addi	a4,sp,832
     d28:	0001                	nop
     d2a:	0000                	unimp
     d2c:	0000                	unimp
     d2e:	6001                	0x6001
     d30:	01069807          	0x1069807
     d34:	0000                	unimp
     d36:	0000                	unimp
     d38:	b600                	fsd	fs0,40(a2)
     d3a:	0106                	slli	sp,sp,0x1
     d3c:	0000                	unimp
     d3e:	0000                	unimp
     d40:	0100                	addi	s0,sp,128
     d42:	005f 1007 0105      	0x1051007005f
     d48:	0000                	unimp
     d4a:	0000                	unimp
     d4c:	1600                	addi	s0,sp,800
     d4e:	0105                	addi	sp,sp,1
     d50:	0000                	unimp
     d52:	0000                	unimp
     d54:	0100                	addi	s0,sp,128
     d56:	0761                	addi	a4,a4,24
     d58:	052e                	slli	a0,a0,0xb
     d5a:	0001                	nop
     d5c:	0000                	unimp
     d5e:	0000                	unimp
     d60:	0568                	addi	a0,sp,652
     d62:	0001                	nop
     d64:	0000                	unimp
     d66:	0000                	unimp
     d68:	6101                	addi	sp,sp,0
     d6a:	0700                	addi	s0,sp,896
     d6c:	052e                	slli	a0,a0,0xb
     d6e:	0001                	nop
     d70:	0000                	unimp
     d72:	0000                	unimp
     d74:	053a                	slli	a0,a0,0xe
     d76:	0001                	nop
     d78:	0000                	unimp
     d7a:	0000                	unimp
     d7c:	5d01                	li	s10,-32
     d7e:	01053c07          	fld	fs8,16(a0)
     d82:	0000                	unimp
     d84:	0000                	unimp
     d86:	5e00                	lw	s0,56(a2)
     d88:	0105                	addi	sp,sp,1
     d8a:	0000                	unimp
     d8c:	0000                	unimp
     d8e:	0100                	addi	s0,sp,128
     d90:	075d                	addi	a4,a4,23
     d92:	0562                	slli	a0,a0,0x18
     d94:	0001                	nop
     d96:	0000                	unimp
     d98:	0000                	unimp
     d9a:	0566                	slli	a0,a0,0x19
     d9c:	0001                	nop
     d9e:	0000                	unimp
     da0:	0000                	unimp
     da2:	5d01                	li	s10,-32
     da4:	0700                	addi	s0,sp,896
     da6:	052e                	slli	a0,a0,0xb
     da8:	0001                	nop
     daa:	0000                	unimp
     dac:	0000                	unimp
     dae:	0532                	slli	a0,a0,0xc
     db0:	0001                	nop
     db2:	0000                	unimp
     db4:	0000                	unimp
     db6:	5e01                	li	t3,-32
     db8:	01053207          	fld	ft4,16(a0)
     dbc:	0000                	unimp
     dbe:	0000                	unimp
     dc0:	3a00                	fld	fs0,48(a2)
     dc2:	0105                	addi	sp,sp,1
     dc4:	0000                	unimp
     dc6:	0000                	unimp
     dc8:	0d00                	addi	s0,sp,656
     dca:	0081                	addi	ra,ra,0
     dcc:	007d                	c.nop	31
     dce:	2432                	fld	fs0,264(sp)
     dd0:	ff08                	sd	a0,56(a4)
     dd2:	261a                	fld	fa2,384(sp)
     dd4:	079f1a3f 0001054a 	0x1054a079f1a3f
     ddc:	0000                	unimp
     dde:	0000                	unimp
     de0:	055c                	addi	a5,sp,644
     de2:	0001                	nop
     de4:	0000                	unimp
     de6:	0000                	unimp
     de8:	5e01                	li	t3,-32
     dea:	01055c07          	0x1055c07
     dee:	0000                	unimp
     df0:	0000                	unimp
     df2:	5e00                	lw	s0,56(a2)
     df4:	0105                	addi	sp,sp,1
     df6:	0000                	unimp
     df8:	0000                	unimp
     dfa:	0300                	addi	s0,sp,384
     dfc:	507e                	0x507e
     dfe:	009f 7807 0105      	0x1057807009f
     e04:	0000                	unimp
     e06:	0000                	unimp
     e08:	8200                	0x8200
     e0a:	0105                	addi	sp,sp,1
     e0c:	0000                	unimp
     e0e:	0000                	unimp
     e10:	0100                	addi	s0,sp,128
     e12:	0761                	addi	a4,a4,24
     e14:	0590                	addi	a2,sp,704
     e16:	0001                	nop
     e18:	0000                	unimp
     e1a:	0000                	unimp
     e1c:	05f0                	addi	a2,sp,716
     e1e:	0001                	nop
     e20:	0000                	unimp
     e22:	0000                	unimp
     e24:	6101                	addi	sp,sp,0
     e26:	0700                	addi	s0,sp,896
     e28:	057c                	addi	a5,sp,652
     e2a:	0001                	nop
     e2c:	0000                	unimp
     e2e:	0000                	unimp
     e30:	0582                	c.slli64	a1
     e32:	0001                	nop
     e34:	0000                	unimp
     e36:	0000                	unimp
     e38:	3102                	fld	ft2,32(sp)
     e3a:	079f 05ae 0001      	0x105ae079f
     e40:	0000                	unimp
     e42:	0000                	unimp
     e44:	05ec                	addi	a1,sp,716
     e46:	0001                	nop
     e48:	0000                	unimp
     e4a:	0000                	unimp
     e4c:	5601                	li	a2,-32
     e4e:	0700                	addi	s0,sp,896
     e50:	057c                	addi	a5,sp,652
     e52:	0001                	nop
     e54:	0000                	unimp
     e56:	0000                	unimp
     e58:	0582                	c.slli64	a1
     e5a:	0001                	nop
     e5c:	0000                	unimp
     e5e:	0000                	unimp
     e60:	6101                	addi	sp,sp,0
     e62:	0105ae07          	flw	ft8,16(a1)
     e66:	0000                	unimp
     e68:	0000                	unimp
     e6a:	bc00                	fsd	fs0,56(s0)
     e6c:	0105                	addi	sp,sp,1
     e6e:	0000                	unimp
     e70:	0000                	unimp
     e72:	0100                	addi	s0,sp,128
     e74:	005e                	c.slli	zero,0x17
     e76:	0105bc07          	fld	fs8,16(a1)
     e7a:	0000                	unimp
     e7c:	0000                	unimp
     e7e:	be00                	fsd	fs0,56(a2)
     e80:	0105                	addi	sp,sp,1
     e82:	0000                	unimp
     e84:	0000                	unimp
     e86:	0300                	addi	s0,sp,384
     e88:	7f76                	ld	t5,376(sp)
     e8a:	079f 05be 0001      	0x105be079f
     e90:	0000                	unimp
     e92:	0000                	unimp
     e94:	05f0                	addi	a2,sp,716
     e96:	0001                	nop
     e98:	0000                	unimp
     e9a:	0000                	unimp
     e9c:	5e01                	li	t3,-32
     e9e:	0700                	addi	s0,sp,896
     ea0:	05fc                	addi	a5,sp,716
     ea2:	0001                	nop
     ea4:	0000                	unimp
     ea6:	0000                	unimp
     ea8:	061e                	slli	a2,a2,0x7
     eaa:	0001                	nop
     eac:	0000                	unimp
     eae:	0000                	unimp
     eb0:	5e01                	li	t3,-32
     eb2:	4b00                	lw	s0,16(a4)
     eb4:	05000007          	0x5000007
     eb8:	0800                	addi	s0,sp,16
     eba:	0000                	unimp
     ebc:	0000                	unimp
     ebe:	0700                	addi	s0,sp,896
     ec0:	08ca                	slli	a7,a7,0x12
     ec2:	0001                	nop
     ec4:	0000                	unimp
     ec6:	0000                	unimp
     ec8:	08d2                	slli	a7,a7,0x14
     eca:	0001                	nop
     ecc:	0000                	unimp
     ece:	0000                	unimp
     ed0:	5a01                	li	s4,-32
     ed2:	0108d207          	0x108d207
     ed6:	0000                	unimp
     ed8:	0000                	unimp
     eda:	d600                	sw	s0,40(a2)
     edc:	0108                	addi	a0,sp,128
     ede:	0000                	unimp
     ee0:	0000                	unimp
     ee2:	0100                	addi	s0,sp,128
     ee4:	075d                	addi	a4,a4,23
     ee6:	08d6                	slli	a7,a7,0x15
     ee8:	0001                	nop
     eea:	0000                	unimp
     eec:	0000                	unimp
     eee:	08e4                	addi	s1,sp,92
     ef0:	0001                	nop
     ef2:	0000                	unimp
     ef4:	0000                	unimp
     ef6:	5f01                	li	t5,-32
     ef8:	0108e407          	0x108e407
     efc:	0000                	unimp
     efe:	0000                	unimp
     f00:	f000                	sd	s0,32(s0)
     f02:	0108                	addi	a0,sp,128
     f04:	0000                	unimp
     f06:	0000                	unimp
     f08:	0100                	addi	s0,sp,128
     f0a:	075d                	addi	a4,a4,23
     f0c:	08f0                	addi	a2,sp,92
     f0e:	0001                	nop
     f10:	0000                	unimp
     f12:	0000                	unimp
     f14:	08f4                	addi	a3,sp,92
     f16:	0001                	nop
     f18:	0000                	unimp
     f1a:	0000                	unimp
     f1c:	5f01                	li	t5,-32
     f1e:	0700                	addi	s0,sp,896
     f20:	08ca                	slli	a7,a7,0x12
     f22:	0001                	nop
     f24:	0000                	unimp
     f26:	0000                	unimp
     f28:	08d2                	slli	a7,a7,0x14
     f2a:	0001                	nop
     f2c:	0000                	unimp
     f2e:	0000                	unimp
     f30:	5b01                	li	s6,-32
     f32:	0108d207          	0x108d207
     f36:	0000                	unimp
     f38:	0000                	unimp
     f3a:	d600                	sw	s0,40(a2)
     f3c:	0108                	addi	a0,sp,128
     f3e:	0000                	unimp
     f40:	0000                	unimp
     f42:	0100                	addi	s0,sp,128
     f44:	0760                	addi	s0,sp,908
     f46:	08d6                	slli	a7,a7,0x15
     f48:	0001                	nop
     f4a:	0000                	unimp
     f4c:	0000                	unimp
     f4e:	08e0                	addi	s0,sp,92
     f50:	0001                	nop
     f52:	0000                	unimp
     f54:	0000                	unimp
     f56:	5b01                	li	s6,-32
     f58:	0108e007          	0x108e007
     f5c:	0000                	unimp
     f5e:	0000                	unimp
     f60:	f000                	sd	s0,32(s0)
     f62:	0108                	addi	a0,sp,128
     f64:	0000                	unimp
     f66:	0000                	unimp
     f68:	0100                	addi	s0,sp,128
     f6a:	0060                	addi	s0,sp,12
     f6c:	0108ca07          	flq	fs4,16(a7)
     f70:	0000                	unimp
     f72:	0000                	unimp
     f74:	d200                	sw	s0,32(a2)
     f76:	0108                	addi	a0,sp,128
     f78:	0000                	unimp
     f7a:	0000                	unimp
     f7c:	0100                	addi	s0,sp,128
     f7e:	075c                	addi	a5,sp,900
     f80:	08d6                	slli	a7,a7,0x15
     f82:	0001                	nop
     f84:	0000                	unimp
     f86:	0000                	unimp
     f88:	08d8                	addi	a4,sp,84
     f8a:	0001                	nop
     f8c:	0000                	unimp
     f8e:	0000                	unimp
     f90:	5c01                	li	s8,-32
     f92:	0700                	addi	s0,sp,896
     f94:	0884                	addi	s1,sp,80
     f96:	0001                	nop
     f98:	0000                	unimp
     f9a:	0000                	unimp
     f9c:	08ac                	addi	a1,sp,88
     f9e:	0001                	nop
     fa0:	0000                	unimp
     fa2:	0000                	unimp
     fa4:	5b01                	li	s6,-32
     fa6:	0108ac07          	flw	fs8,16(a7)
     faa:	0000                	unimp
     fac:	0000                	unimp
     fae:	c200                	sw	s0,0(a2)
     fb0:	0108                	addi	a0,sp,128
     fb2:	0000                	unimp
     fb4:	0000                	unimp
     fb6:	0400                	addi	s0,sp,512
     fb8:	9f5b01a3          	sb	s5,-1565(s6)
     fbc:	0108c207          	flq	ft4,16(a7)
     fc0:	0000                	unimp
     fc2:	0000                	unimp
     fc4:	ca00                	sw	s0,16(a2)
     fc6:	0108                	addi	a0,sp,128
     fc8:	0000                	unimp
     fca:	0000                	unimp
     fcc:	0100                	addi	s0,sp,128
     fce:	8407005b          	0x8407005b
     fd2:	0108                	addi	a0,sp,128
     fd4:	0000                	unimp
     fd6:	0000                	unimp
     fd8:	9600                	0x9600
     fda:	0108                	addi	a0,sp,128
     fdc:	0000                	unimp
     fde:	0000                	unimp
     fe0:	0100                	addi	s0,sp,128
     fe2:	075c                	addi	a5,sp,900
     fe4:	0896                	slli	a7,a7,0x5
     fe6:	0001                	nop
     fe8:	0000                	unimp
     fea:	0000                	unimp
     fec:	08a4                	addi	s1,sp,88
     fee:	0001                	nop
     ff0:	0000                	unimp
     ff2:	0000                	unimp
     ff4:	5d01                	li	s10,-32
     ff6:	0108a407          	flw	fs0,16(a7)
     ffa:	0000                	unimp
     ffc:	0000                	unimp
     ffe:	a800                	fsd	fs0,16(s0)
    1000:	0108                	addi	a0,sp,128
    1002:	0000                	unimp
    1004:	0000                	unimp
    1006:	0100                	addi	s0,sp,128
    1008:	075c                	addi	a5,sp,900
    100a:	08a8                	addi	a0,sp,88
    100c:	0001                	nop
    100e:	0000                	unimp
    1010:	0000                	unimp
    1012:	08ac                	addi	a1,sp,88
    1014:	0001                	nop
    1016:	0000                	unimp
    1018:	0000                	unimp
    101a:	5d01                	li	s10,-32
    101c:	0108ac07          	flw	fs8,16(a7)
    1020:	0000                	unimp
    1022:	0000                	unimp
    1024:	ba00                	fsd	fs0,48(a2)
    1026:	0108                	addi	a0,sp,128
    1028:	0000                	unimp
    102a:	0000                	unimp
    102c:	0100                	addi	s0,sp,128
    102e:	075e                	slli	a4,a4,0x17
    1030:	08ba                	slli	a7,a7,0xe
    1032:	0001                	nop
    1034:	0000                	unimp
    1036:	0000                	unimp
    1038:	08be                	slli	a7,a7,0xf
    103a:	0001                	nop
    103c:	0000                	unimp
    103e:	0000                	unimp
    1040:	5c01                	li	s8,-32
    1042:	0108be07          	fld	ft8,16(a7)
    1046:	0000                	unimp
    1048:	0000                	unimp
    104a:	c200                	sw	s0,0(a2)
    104c:	0108                	addi	a0,sp,128
    104e:	0000                	unimp
    1050:	0000                	unimp
    1052:	0100                	addi	s0,sp,128
    1054:	075e                	slli	a4,a4,0x17
    1056:	08c2                	slli	a7,a7,0x10
    1058:	0001                	nop
    105a:	0000                	unimp
    105c:	0000                	unimp
    105e:	08ca                	slli	a7,a7,0x12
    1060:	0001                	nop
    1062:	0000                	unimp
    1064:	0000                	unimp
    1066:	5c01                	li	s8,-32
    1068:	0700                	addi	s0,sp,896
    106a:	0884                	addi	s1,sp,80
    106c:	0001                	nop
    106e:	0000                	unimp
    1070:	0000                	unimp
    1072:	0890                	addi	a2,sp,80
    1074:	0001                	nop
    1076:	0000                	unimp
    1078:	0000                	unimp
    107a:	5b01                	li	s6,-32
    107c:	01089007          	0x1089007
    1080:	0000                	unimp
    1082:	0000                	unimp
    1084:	ac00                	fsd	fs0,24(s0)
    1086:	0108                	addi	a0,sp,128
    1088:	0000                	unimp
    108a:	0000                	unimp
    108c:	0100                	addi	s0,sp,128
    108e:	075f 08ac 0001      	0x108ac075f
    1094:	0000                	unimp
    1096:	0000                	unimp
    1098:	08b8                	addi	a4,sp,88
    109a:	0001                	nop
    109c:	0000                	unimp
    109e:	0000                	unimp
    10a0:	9f017b03          	0x9f017b03
    10a4:	0108b807          	fld	fa6,16(a7)
    10a8:	0000                	unimp
    10aa:	0000                	unimp
    10ac:	ca00                	sw	s0,16(a2)
    10ae:	0108                	addi	a0,sp,128
    10b0:	0000                	unimp
    10b2:	0000                	unimp
    10b4:	0100                	addi	s0,sp,128
    10b6:	8407005b          	0x8407005b
    10ba:	0108                	addi	a0,sp,128
    10bc:	0000                	unimp
    10be:	0000                	unimp
    10c0:	9400                	0x9400
    10c2:	0108                	addi	a0,sp,128
    10c4:	0000                	unimp
    10c6:	0000                	unimp
    10c8:	0100                	addi	s0,sp,128
    10ca:	075a                	slli	a4,a4,0x16
    10cc:	0894                	addi	a3,sp,80
    10ce:	0001                	nop
    10d0:	0000                	unimp
    10d2:	0000                	unimp
    10d4:	08ac                	addi	a1,sp,88
    10d6:	0001                	nop
    10d8:	0000                	unimp
    10da:	0000                	unimp
    10dc:	5e01                	li	t3,-32
    10de:	0108ac07          	flw	fs8,16(a7)
    10e2:	0000                	unimp
    10e4:	0000                	unimp
    10e6:	b600                	fsd	fs0,40(a2)
    10e8:	0108                	addi	a0,sp,128
    10ea:	0000                	unimp
    10ec:	0000                	unimp
    10ee:	0300                	addi	s0,sp,384
    10f0:	017f                	0x17f
    10f2:	079f 08b6 0001      	0x108b6079f
    10f8:	0000                	unimp
    10fa:	0000                	unimp
    10fc:	08c2                	slli	a7,a7,0x10
    10fe:	0001                	nop
    1100:	0000                	unimp
    1102:	0000                	unimp
    1104:	5f01                	li	t5,-32
    1106:	0108c207          	flq	ft4,16(a7)
    110a:	0000                	unimp
    110c:	0000                	unimp
    110e:	ca00                	sw	s0,16(a2)
    1110:	0108                	addi	a0,sp,128
    1112:	0000                	unimp
    1114:	0000                	unimp
    1116:	0100                	addi	s0,sp,128
    1118:	005a                	c.slli	zero,0x16
    111a:	01083007          	fld	ft0,16(a6) # ffffffffffff9010 <__global_pointer$+0xfffffffffffe6e0c>
    111e:	0000                	unimp
    1120:	0000                	unimp
    1122:	3400                	fld	fs0,40(s0)
    1124:	0108                	addi	a0,sp,128
    1126:	0000                	unimp
    1128:	0000                	unimp
    112a:	0100                	addi	s0,sp,128
    112c:	075a                	slli	a4,a4,0x16
    112e:	0834                	addi	a3,sp,24
    1130:	0001                	nop
    1132:	0000                	unimp
    1134:	0000                	unimp
    1136:	0884                	addi	s1,sp,80
    1138:	0001                	nop
    113a:	0000                	unimp
    113c:	0000                	unimp
    113e:	5f01                	li	t5,-32
    1140:	0700                	addi	s0,sp,896
    1142:	0832                	slli	a6,a6,0xc
    1144:	0001                	nop
    1146:	0000                	unimp
    1148:	0000                	unimp
    114a:	0864                	addi	s1,sp,28
    114c:	0001                	nop
    114e:	0000                	unimp
    1150:	0000                	unimp
    1152:	3002                	fld	ft0,32(sp)
    1154:	079f 0864 0001      	0x10864079f
    115a:	0000                	unimp
    115c:	0000                	unimp
    115e:	086c                	addi	a1,sp,28
    1160:	0001                	nop
    1162:	0000                	unimp
    1164:	0000                	unimp
    1166:	5a01                	li	s4,-32
    1168:	01086c07          	0x1086c07
    116c:	0000                	unimp
    116e:	0000                	unimp
    1170:	7600                	ld	s0,40(a2)
    1172:	0108                	addi	a0,sp,128
    1174:	0000                	unimp
    1176:	0000                	unimp
    1178:	0100                	addi	s0,sp,128
    117a:	075e                	slli	a4,a4,0x17
    117c:	0876                	slli	a6,a6,0x1d
    117e:	0001                	nop
    1180:	0000                	unimp
    1182:	0000                	unimp
    1184:	0882                	c.slli64	a7
    1186:	0001                	nop
    1188:	0000                	unimp
    118a:	0000                	unimp
    118c:	5a01                	li	s4,-32
    118e:	0700                	addi	s0,sp,896
    1190:	0832                	slli	a6,a6,0xc
    1192:	0001                	nop
    1194:	0000                	unimp
    1196:	0000                	unimp
    1198:	085e                	slli	a6,a6,0x17
    119a:	0001                	nop
    119c:	0000                	unimp
    119e:	0000                	unimp
    11a0:	3002                	fld	ft0,32(sp)
    11a2:	079f 085e 0001      	0x1085e079f
    11a8:	0000                	unimp
    11aa:	0000                	unimp
    11ac:	0860                	addi	s0,sp,28
    11ae:	0001                	nop
    11b0:	0000                	unimp
    11b2:	0000                	unimp
    11b4:	5c01                	li	s8,-32
    11b6:	01086407          	0x1086407
    11ba:	0000                	unimp
    11bc:	0000                	unimp
    11be:	8400                	0x8400
    11c0:	0108                	addi	a0,sp,128
    11c2:	0000                	unimp
    11c4:	0000                	unimp
    11c6:	0100                	addi	s0,sp,128
    11c8:	005c                	addi	a5,sp,4
    11ca:	01080c07          	0x1080c07
    11ce:	0000                	unimp
    11d0:	0000                	unimp
    11d2:	1b00                	addi	s0,sp,432
    11d4:	0108                	addi	a0,sp,128
    11d6:	0000                	unimp
    11d8:	0000                	unimp
    11da:	0100                	addi	s0,sp,128
    11dc:	075a                	slli	a4,a4,0x16
    11de:	0001081b          	sext.w	a6,sp
    11e2:	0000                	unimp
    11e4:	0000                	unimp
    11e6:	082a                	slli	a6,a6,0xa
    11e8:	0001                	nop
    11ea:	0000                	unimp
    11ec:	0000                	unimp
    11ee:	5801                	li	a6,-32
    11f0:	01082a07          	flw	fs4,16(a6)
    11f4:	0000                	unimp
    11f6:	0000                	unimp
    11f8:	3000                	fld	fs0,32(s0)
    11fa:	0108                	addi	a0,sp,128
    11fc:	0000                	unimp
    11fe:	0000                	unimp
    1200:	0100                	addi	s0,sp,128
    1202:	005a                	c.slli	zero,0x16
    1204:	01080c07          	0x1080c07
    1208:	0000                	unimp
    120a:	0000                	unimp
    120c:	1b00                	addi	s0,sp,432
    120e:	0108                	addi	a0,sp,128
    1210:	0000                	unimp
    1212:	0000                	unimp
    1214:	0100                	addi	s0,sp,128
    1216:	081b075b          	0x81b075b
    121a:	0001                	nop
    121c:	0000                	unimp
    121e:	0000                	unimp
    1220:	082c                	addi	a1,sp,24
    1222:	0001                	nop
    1224:	0000                	unimp
    1226:	0000                	unimp
    1228:	5901                	li	s2,-32
    122a:	01082c07          	flw	fs8,16(a6)
    122e:	0000                	unimp
    1230:	0000                	unimp
    1232:	3000                	fld	fs0,32(s0)
    1234:	0108                	addi	a0,sp,128
    1236:	0000                	unimp
    1238:	0000                	unimp
    123a:	0400                	addi	s0,sp,512
    123c:	9f5b01a3          	sb	s5,-1565(s6)
    1240:	0700                	addi	s0,sp,896
    1242:	0784                	addi	s1,sp,960
    1244:	0001                	nop
    1246:	0000                	unimp
    1248:	0000                	unimp
    124a:	07a8                	addi	a0,sp,968
    124c:	0001                	nop
    124e:	0000                	unimp
    1250:	0000                	unimp
    1252:	5a01                	li	s4,-32
    1254:	0107a807          	flw	fa6,16(a5)
    1258:	0000                	unimp
    125a:	0000                	unimp
    125c:	0c00                	addi	s0,sp,528
    125e:	0108                	addi	a0,sp,128
    1260:	0000                	unimp
    1262:	0000                	unimp
    1264:	0400                	addi	s0,sp,512
    1266:	9f5a01a3          	sb	s5,-1565(s4)
    126a:	0700                	addi	s0,sp,896
    126c:	0784                	addi	s1,sp,960
    126e:	0001                	nop
    1270:	0000                	unimp
    1272:	0000                	unimp
    1274:	07a8                	addi	a0,sp,968
    1276:	0001                	nop
    1278:	0000                	unimp
    127a:	0000                	unimp
    127c:	5b01                	li	s6,-32
    127e:	0107a807          	flw	fa6,16(a5)
    1282:	0000                	unimp
    1284:	0000                	unimp
    1286:	fe00                	sd	s0,56(a2)
    1288:	00000107          	0x107
    128c:	0000                	unimp
    128e:	0100                	addi	s0,sp,128
    1290:	07fe0763          	beq	t3,t6,12fe <main-0xedb2>
    1294:	0001                	nop
    1296:	0000                	unimp
    1298:	0000                	unimp
    129a:	0802                	c.slli64	a6
    129c:	0001                	nop
    129e:	0000                	unimp
    12a0:	0000                	unimp
    12a2:	a304                	fsd	fs1,0(a4)
    12a4:	5b01                	li	s6,-32
    12a6:	079f 0802 0001      	0x10802079f
    12ac:	0000                	unimp
    12ae:	0000                	unimp
    12b0:	080c                	addi	a1,sp,16
    12b2:	0001                	nop
    12b4:	0000                	unimp
    12b6:	0000                	unimp
    12b8:	6301                	0x6301
    12ba:	0700                	addi	s0,sp,896
    12bc:	07a8                	addi	a0,sp,968
    12be:	0001                	nop
    12c0:	0000                	unimp
    12c2:	0000                	unimp
    12c4:	07de                	slli	a5,a5,0x17
    12c6:	0001                	nop
    12c8:	0000                	unimp
    12ca:	0000                	unimp
    12cc:	5801                	li	a6,-32
    12ce:	0107e007          	0x107e007
    12d2:	0000                	unimp
    12d4:	0000                	unimp
    12d6:	f200                	sd	s0,32(a2)
    12d8:	00000107          	0x107
    12dc:	0000                	unimp
    12de:	0100                	addi	s0,sp,128
    12e0:	0758                	addi	a4,sp,900
    12e2:	0802                	c.slli64	a6
    12e4:	0001                	nop
    12e6:	0000                	unimp
    12e8:	0000                	unimp
    12ea:	080c                	addi	a1,sp,16
    12ec:	0001                	nop
    12ee:	0000                	unimp
    12f0:	0000                	unimp
    12f2:	5801                	li	a6,-32
    12f4:	0700                	addi	s0,sp,896
    12f6:	07be                	slli	a5,a5,0xf
    12f8:	0001                	nop
    12fa:	0000                	unimp
    12fc:	0000                	unimp
    12fe:	07d4                	addi	a3,sp,964
    1300:	0001                	nop
    1302:	0000                	unimp
    1304:	0000                	unimp
    1306:	5901                	li	s2,-32
    1308:	0107e007          	0x107e007
    130c:	0000                	unimp
    130e:	0000                	unimp
    1310:	ea00                	sd	s0,16(a2)
    1312:	00000107          	0x107
    1316:	0000                	unimp
    1318:	0100                	addi	s0,sp,128
    131a:	0759                	addi	a4,a4,22
    131c:	07ea                	slli	a5,a5,0x1a
    131e:	0001                	nop
    1320:	0000                	unimp
    1322:	0000                	unimp
    1324:	07f2                	slli	a5,a5,0x1c
    1326:	0001                	nop
    1328:	0000                	unimp
    132a:	0000                	unimp
    132c:	9f7f7903          	0x9f7f7903
    1330:	01080207          	0x1080207
    1334:	0000                	unimp
    1336:	0000                	unimp
    1338:	0c00                	addi	s0,sp,528
    133a:	0108                	addi	a0,sp,128
    133c:	0000                	unimp
    133e:	0000                	unimp
    1340:	0100                	addi	s0,sp,128
    1342:	0059                	c.nop	22
    1344:	01076e07          	0x1076e07
    1348:	0000                	unimp
    134a:	0000                	unimp
    134c:	7600                	ld	s0,40(a2)
    134e:	00000107          	0x107
    1352:	0000                	unimp
    1354:	0100                	addi	s0,sp,128
    1356:	075a                	slli	a4,a4,0x16
    1358:	0776                	slli	a4,a4,0x1d
    135a:	0001                	nop
    135c:	0000                	unimp
    135e:	0000                	unimp
    1360:	0782                	c.slli64	a5
    1362:	0001                	nop
    1364:	0000                	unimp
    1366:	0000                	unimp
    1368:	5a01                	li	s4,-32
    136a:	0700                	addi	s0,sp,896
    136c:	076e                	slli	a4,a4,0x1b
    136e:	0001                	nop
    1370:	0000                	unimp
    1372:	0000                	unimp
    1374:	0772                	slli	a4,a4,0x1c
    1376:	0001                	nop
    1378:	0000                	unimp
    137a:	0000                	unimp
    137c:	5b01                	li	s6,-32
    137e:	01077207          	0x1077207
    1382:	0000                	unimp
    1384:	0000                	unimp
    1386:	8400                	0x8400
    1388:	00000107          	0x107
    138c:	0000                	unimp
    138e:	0400                	addi	s0,sp,512
    1390:	9f5b01a3          	sb	s5,-1565(s6)
    1394:	0700                	addi	s0,sp,896
    1396:	075c                	addi	a5,sp,900
    1398:	0001                	nop
    139a:	0000                	unimp
    139c:	0000                	unimp
    139e:	075e                	slli	a4,a4,0x17
    13a0:	0001                	nop
    13a2:	0000                	unimp
    13a4:	0000                	unimp
    13a6:	5b01                	li	s6,-32
    13a8:	01075e07          	0x1075e07
    13ac:	0000                	unimp
    13ae:	0000                	unimp
    13b0:	6400                	ld	s0,8(s0)
    13b2:	00000107          	0x107
    13b6:	0000                	unimp
    13b8:	0100                	addi	s0,sp,128
    13ba:	0764075b          	0x764075b
    13be:	0001                	nop
    13c0:	0000                	unimp
    13c2:	0000                	unimp
    13c4:	076e                	slli	a4,a4,0x1b
    13c6:	0001                	nop
    13c8:	0000                	unimp
    13ca:	0000                	unimp
    13cc:	9f7f7b03          	0x9f7f7b03
    13d0:	0700                	addi	s0,sp,896
    13d2:	075c                	addi	a5,sp,900
    13d4:	0001                	nop
    13d6:	0000                	unimp
    13d8:	0000                	unimp
    13da:	075e                	slli	a4,a4,0x17
    13dc:	0001                	nop
    13de:	0000                	unimp
    13e0:	0000                	unimp
    13e2:	5a01                	li	s4,-32
    13e4:	01075e07          	0x1075e07
    13e8:	0000                	unimp
    13ea:	0000                	unimp
    13ec:	6a00                	ld	s0,16(a2)
    13ee:	00000107          	0x107
    13f2:	0000                	unimp
    13f4:	0100                	addi	s0,sp,128
    13f6:	075d                	addi	a4,a4,23
    13f8:	076a                	slli	a4,a4,0x1a
    13fa:	0001                	nop
    13fc:	0000                	unimp
    13fe:	0000                	unimp
    1400:	076e                	slli	a4,a4,0x1b
    1402:	0001                	nop
    1404:	0000                	unimp
    1406:	0000                	unimp
    1408:	9f7f7d03          	0x9f7f7d03
    140c:	0700                	addi	s0,sp,896
    140e:	0732                	slli	a4,a4,0xc
    1410:	0001                	nop
    1412:	0000                	unimp
    1414:	0000                	unimp
    1416:	0742                	slli	a4,a4,0x10
    1418:	0001                	nop
    141a:	0000                	unimp
    141c:	0000                	unimp
    141e:	5a01                	li	s4,-32
    1420:	01074207          	flq	ft4,16(a4) # b010 <main-0x50a0>
    1424:	0000                	unimp
    1426:	0000                	unimp
    1428:	4400                	lw	s0,8(s0)
    142a:	00000107          	0x107
    142e:	0000                	unimp
    1430:	0400                	addi	s0,sp,512
    1432:	9f5a01a3          	sb	s5,-1565(s4)
    1436:	0700                	addi	s0,sp,896
    1438:	0732                	slli	a4,a4,0xc
    143a:	0001                	nop
    143c:	0000                	unimp
    143e:	0000                	unimp
    1440:	0736                	slli	a4,a4,0xd
    1442:	0001                	nop
    1444:	0000                	unimp
    1446:	0000                	unimp
    1448:	5a01                	li	s4,-32
    144a:	01073607          	fld	fa2,16(a4)
    144e:	0000                	unimp
    1450:	0000                	unimp
    1452:	4400                	lw	s0,8(s0)
    1454:	00000107          	0x107
    1458:	0000                	unimp
    145a:	0100                	addi	s0,sp,128
    145c:	005f ee07 0106      	0x106ee07005f
    1462:	0000                	unimp
    1464:	0000                	unimp
    1466:	fa00                	sd	s0,48(a2)
    1468:	0106                	slli	sp,sp,0x1
    146a:	0000                	unimp
    146c:	0000                	unimp
    146e:	0100                	addi	s0,sp,128
    1470:	06fa075b          	0x6fa075b
    1474:	0001                	nop
    1476:	0000                	unimp
    1478:	0000                	unimp
    147a:	071e                	slli	a4,a4,0x7
    147c:	0001                	nop
    147e:	0000                	unimp
    1480:	0000                	unimp
    1482:	a304                	fsd	fs1,0(a4)
    1484:	5b01                	li	s6,-32
    1486:	079f 071e 0001      	0x1071e079f
    148c:	0000                	unimp
    148e:	0000                	unimp
    1490:	0732                	slli	a4,a4,0xc
    1492:	0001                	nop
    1494:	0000                	unimp
    1496:	0000                	unimp
    1498:	5b01                	li	s6,-32
    149a:	0700                	addi	s0,sp,896
    149c:	06fa                	slli	a3,a3,0x1e
    149e:	0001                	nop
    14a0:	0000                	unimp
    14a2:	0000                	unimp
    14a4:	0700                	addi	s0,sp,896
    14a6:	0001                	nop
    14a8:	0000                	unimp
    14aa:	0000                	unimp
    14ac:	5b01                	li	s6,-32
    14ae:	01070007          	0x1070007
    14b2:	0000                	unimp
    14b4:	0000                	unimp
    14b6:	0600                	addi	s0,sp,768
    14b8:	00000107          	0x107
    14bc:	0000                	unimp
    14be:	0100                	addi	s0,sp,128
    14c0:	075e                	slli	a4,a4,0x17
    14c2:	0706                	slli	a4,a4,0x1
    14c4:	0001                	nop
    14c6:	0000                	unimp
    14c8:	0000                	unimp
    14ca:	070c                	addi	a1,sp,896
    14cc:	0001                	nop
    14ce:	0000                	unimp
    14d0:	0000                	unimp
    14d2:	5f01                	li	t5,-32
    14d4:	01070c07          	0x1070c07
    14d8:	0000                	unimp
    14da:	0000                	unimp
    14dc:	1e00                	addi	s0,sp,816
    14de:	00000107          	0x107
    14e2:	0000                	unimp
    14e4:	0100                	addi	s0,sp,128
    14e6:	005d                	c.nop	23
    14e8:	01070c07          	0x1070c07
    14ec:	0000                	unimp
    14ee:	0000                	unimp
    14f0:	1000                	addi	s0,sp,32
    14f2:	00000107          	0x107
    14f6:	0000                	unimp
    14f8:	0100                	addi	s0,sp,128
    14fa:	075a                	slli	a4,a4,0x16
    14fc:	0710                	addi	a2,sp,896
    14fe:	0001                	nop
    1500:	0000                	unimp
    1502:	0000                	unimp
    1504:	0714                	addi	a3,sp,896
    1506:	0001                	nop
    1508:	0000                	unimp
    150a:	0000                	unimp
    150c:	9f087f03          	0x9f087f03
    1510:	01071407          	0x1071407
    1514:	0000                	unimp
    1516:	0000                	unimp
    1518:	1e00                	addi	s0,sp,816
    151a:	00000107          	0x107
    151e:	0000                	unimp
    1520:	0100                	addi	s0,sp,128
    1522:	005f 1e07 0107      	0x1071e07005f
    1528:	0000                	unimp
    152a:	0000                	unimp
    152c:	2400                	fld	fs0,8(s0)
    152e:	00000107          	0x107
    1532:	0000                	unimp
    1534:	0300                	addi	s0,sp,384
    1536:	017f                	0x17f
    1538:	079f 0724 0001      	0x10724079f
    153e:	0000                	unimp
    1540:	0000                	unimp
    1542:	072e                	slli	a4,a4,0xb
    1544:	0001                	nop
    1546:	0000                	unimp
    1548:	0000                	unimp
    154a:	5f01                	li	t5,-32
    154c:	0700                	addi	s0,sp,896
    154e:	06b6                	slli	a3,a3,0xd
    1550:	0001                	nop
    1552:	0000                	unimp
    1554:	0000                	unimp
    1556:	06c4                	addi	s1,sp,836
    1558:	0001                	nop
    155a:	0000                	unimp
    155c:	0000                	unimp
    155e:	5b01                	li	s6,-32
    1560:	0106c407          	flq	fs0,16(a3)
    1564:	0000                	unimp
    1566:	0000                	unimp
    1568:	ee00                	sd	s0,24(a2)
    156a:	0106                	slli	sp,sp,0x1
    156c:	0000                	unimp
    156e:	0000                	unimp
    1570:	0400                	addi	s0,sp,512
    1572:	9f5b01a3          	sb	s5,-1565(s6)
    1576:	0700                	addi	s0,sp,896
    1578:	06b6                	slli	a3,a3,0xd
    157a:	0001                	nop
    157c:	0000                	unimp
    157e:	0000                	unimp
    1580:	06d8                	addi	a4,sp,836
    1582:	0001                	nop
    1584:	0000                	unimp
    1586:	0000                	unimp
    1588:	5b01                	li	s6,-32
    158a:	0106d807          	0x106d807
    158e:	0000                	unimp
    1590:	0000                	unimp
    1592:	e400                	sd	s0,8(s0)
    1594:	0106                	slli	sp,sp,0x1
    1596:	0000                	unimp
    1598:	0000                	unimp
    159a:	0300                	addi	s0,sp,384
    159c:	079f017b          	0x79f017b
    15a0:	06e4                	addi	s1,sp,844
    15a2:	0001                	nop
    15a4:	0000                	unimp
    15a6:	0000                	unimp
    15a8:	06ee                	slli	a3,a3,0x1b
    15aa:	0001                	nop
    15ac:	0000                	unimp
    15ae:	0000                	unimp
    15b0:	5b01                	li	s6,-32
    15b2:	0700                	addi	s0,sp,896
    15b4:	06b6                	slli	a3,a3,0xd
    15b6:	0001                	nop
    15b8:	0000                	unimp
    15ba:	0000                	unimp
    15bc:	06c4                	addi	s1,sp,836
    15be:	0001                	nop
    15c0:	0000                	unimp
    15c2:	0000                	unimp
    15c4:	5a01                	li	s4,-32
    15c6:	0106c407          	flq	fs0,16(a3)
    15ca:	0000                	unimp
    15cc:	0000                	unimp
    15ce:	d800                	sw	s0,48(s0)
    15d0:	0106                	slli	sp,sp,0x1
    15d2:	0000                	unimp
    15d4:	0000                	unimp
    15d6:	0100                	addi	s0,sp,128
    15d8:	075f 06d8 0001      	0x106d8075f
    15de:	0000                	unimp
    15e0:	0000                	unimp
    15e2:	06e2                	slli	a3,a3,0x18
    15e4:	0001                	nop
    15e6:	0000                	unimp
    15e8:	0000                	unimp
    15ea:	9f017f03          	0x9f017f03
    15ee:	0106e207          	0x106e207
    15f2:	0000                	unimp
    15f4:	0000                	unimp
    15f6:	ee00                	sd	s0,24(a2)
    15f8:	0106                	slli	sp,sp,0x1
    15fa:	0000                	unimp
    15fc:	0000                	unimp
    15fe:	0100                	addi	s0,sp,128
    1600:	005f        	0x5f

Disassembly of section .debug_rnglists:

0000000000000000 <.debug_rnglists>:
   0:	0000002b          	0x2b
   4:	0005                	c.nop	1
   6:	0008                	0x8
   8:	0000                	unimp
   a:	0000                	unimp
   c:	1006                	c.slli	zero,0x21
   e:	0101                	addi	sp,sp,0
  10:	0000                	unimp
  12:	0000                	unimp
  14:	2e00                	fld	fs0,24(a2)
  16:	0101                	addi	sp,sp,0
  18:	0000                	unimp
  1a:	0000                	unimp
  1c:	0600                	addi	s0,sp,768
  1e:	012e                	slli	sp,sp,0xb
  20:	0001                	nop
  22:	0000                	unimp
  24:	0000                	unimp
  26:	01b6                	slli	gp,gp,0xd
  28:	0001                	nop
  2a:	0000                	unimp
  2c:	0000                	unimp
  2e:	9300                	0x9300
  30:	0000                	unimp
  32:	0500                	addi	s0,sp,640
  34:	0800                	addi	s0,sp,16
  36:	0000                	unimp
  38:	0000                	unimp
  3a:	0600                	addi	s0,sp,768
  3c:	0510                	addi	a2,sp,640
  3e:	0001                	nop
  40:	0000                	unimp
  42:	0000                	unimp
  44:	0516                	slli	a0,a0,0x5
  46:	0001                	nop
  48:	0000                	unimp
  4a:	0000                	unimp
  4c:	2e06                	fld	ft8,64(sp)
  4e:	0105                	addi	sp,sp,1
  50:	0000                	unimp
  52:	0000                	unimp
  54:	6200                	ld	s0,0(a2)
  56:	0105                	addi	sp,sp,1
  58:	0000                	unimp
  5a:	0000                	unimp
  5c:	0000                	unimp
  5e:	2e06                	fld	ft8,64(sp)
  60:	0105                	addi	sp,sp,1
  62:	0000                	unimp
  64:	0000                	unimp
  66:	3800                	fld	fs0,48(s0)
  68:	0105                	addi	sp,sp,1
  6a:	0000                	unimp
  6c:	0000                	unimp
  6e:	0600                	addi	s0,sp,768
  70:	053a                	slli	a0,a0,0xe
  72:	0001                	nop
  74:	0000                	unimp
  76:	0000                	unimp
  78:	053c                	addi	a5,sp,648
  7a:	0001                	nop
  7c:	0000                	unimp
  7e:	0000                	unimp
  80:	4006                	0x4006
  82:	0105                	addi	sp,sp,1
  84:	0000                	unimp
  86:	0000                	unimp
  88:	5e00                	lw	s0,56(a2)
  8a:	0105                	addi	sp,sp,1
  8c:	0000                	unimp
  8e:	0000                	unimp
  90:	0000                	unimp
  92:	7c06                	ld	s8,96(sp)
  94:	0105                	addi	sp,sp,1
  96:	0000                	unimp
  98:	0000                	unimp
  9a:	7e00                	ld	s0,56(a2)
  9c:	0105                	addi	sp,sp,1
  9e:	0000                	unimp
  a0:	0000                	unimp
  a2:	0600                	addi	s0,sp,768
  a4:	0580                	addi	s0,sp,704
  a6:	0001                	nop
  a8:	0000                	unimp
  aa:	0000                	unimp
  ac:	0582                	c.slli64	a1
  ae:	0001                	nop
  b0:	0000                	unimp
  b2:	0000                	unimp
  b4:	ae06                	fsd	ft1,280(sp)
  b6:	0105                	addi	sp,sp,1
  b8:	0000                	unimp
  ba:	0000                	unimp
  bc:	b800                	fsd	fs0,48(s0)
  be:	0105                	addi	sp,sp,1
  c0:	0000                	unimp
  c2:	0000                	unimp
  c4:	0000                	unimp
  c6:	0000002b          	0x2b
  ca:	0005                	c.nop	1
  cc:	0008                	0x8
  ce:	0000                	unimp
  d0:	0000                	unimp
  d2:	1e06                	slli	t3,t3,0x21
  d4:	00000107          	0x107
  d8:	0000                	unimp
  da:	2c00                	fld	fs0,24(s0)
  dc:	00000107          	0x107
  e0:	0000                	unimp
  e2:	0600                	addi	s0,sp,768
  e4:	072e                	slli	a4,a4,0xb
  e6:	0001                	nop
  e8:	0000                	unimp
  ea:	0000                	unimp
  ec:	0732                	slli	a4,a4,0xc
  ee:	0001                	nop
  f0:	0000                	unimp
  f2:	0000                	unimp
	...
